                 U _CFArrayGetCount
                 U _CFArrayGetValueAtIndex
                 U _CFStringGetCStringPtr
                 U _CGDisplayCapture
                 U _CGDisplayCopyAllDisplayModes
                 U _CGDisplayCopyDisplayMode
                 U _CGDisplayHideCursor
                 U _CGDisplayModeGetHeight
                 U _CGDisplayModeGetRefreshRate
                 U _CGDisplayModeGetWidth
                 U _CGDisplayRelease
                 U _CGDisplaySetDisplayMode
                 U _CGDisplayShowCursor
                 U _CGLDisable
                 U _CGLEnable
                 U _CGLFlushDrawable
                 U _CGLLockContext
                 U _CGLSetParameter
                 U _CGLUnlockContext
                 U _CGMainDisplayID
                 U _CGWarpMouseCursorPosition
                 U _CVDisplayLinkCreateWithActiveCGDisplays
                 U _CVDisplayLinkRelease
                 U _CVDisplayLinkSetCurrentCGDisplayFromOpenGLContext
                 U _CVDisplayLinkSetOutputCallback
                 U _CVDisplayLinkStart
                 U _CVDisplayLinkStop
                 U _FMOD_System_Create
                 U _NSApp
                 U _NSApplicationMain
                 U _NSLog
                 U _OBJC_CLASS_$_NSBundle
                 U _OBJC_CLASS_$_NSCursor
                 U _OBJC_CLASS_$_NSFileManager
                 U _OBJC_CLASS_$_NSMenu
                 U _OBJC_CLASS_$_NSObject
                 U _OBJC_CLASS_$_NSOpenGLContext
                 U _OBJC_CLASS_$_NSOpenGLPixelFormat
                 U _OBJC_CLASS_$_NSOpenGLView
                 U _OBJC_CLASS_$_NSString
                 U _OBJC_CLASS_$_NSThread
                 U _OBJC_CLASS_$_NSWindow
                 U _OBJC_CLASS_$_NSWindowController
                 U _OBJC_METACLASS_$_NSObject
                 U _OBJC_METACLASS_$_NSOpenGLView
                 U _OBJC_METACLASS_$_NSWindowController
                 U _OSAtomicAdd32Barrier
                 U _OSAtomicCompareAndSwap32Barrier
                 U _OSAtomicCompareAndSwapPtrBarrier
                 U _SDL_GameControllerAddMappingsFromRW
                 U _SDL_GameControllerClose
                 U _SDL_GameControllerGetAxis
                 U _SDL_GameControllerGetButton
                 U _SDL_GameControllerGetJoystick
                 U _SDL_GameControllerOpen
                 U _SDL_GameControllerUpdate
                 U _SDL_GetKeyName
                 U _SDL_HapticClose
                 U _SDL_HapticOpenFromJoystick
                 U _SDL_HapticRumbleInit
                 U _SDL_HapticRumblePlay
                 U _SDL_HapticRumbleStop
                 U _SDL_Init
                 U _SDL_InitSubSystem
                 U _SDL_JoystickGetAttached
                 U _SDL_JoystickGetGUID
                 U _SDL_JoystickGetGUIDString
                 U _SDL_NumJoysticks
                 U _SDL_RWFromMem
                 U _SDL_WasInit
                 U _SteamAPI_Init
                 U _SteamAPI_RegisterCallResult
                 U _SteamAPI_RegisterCallback
                 U _SteamAPI_RestartAppIfNecessary
                 U _SteamAPI_RunCallbacks
                 U _SteamAPI_Shutdown
                 U _SteamAPI_UnregisterCallResult
                 U _SteamAPI_UnregisterCallback
                 U _SteamFriends
                 U _SteamUGC
                 U _SteamUser
                 U _SteamUserStats
                 U _SteamUtils
                 U __Block_copy
                 U __DefaultRuneLocale
                 U __NSConcreteGlobalBlock
                 U __NSConcreteStackBlock
                 U __Unwind_Resume
000000010290df5c t __Z13VerticalSkewTIfEvP8FIBITMAPS1_iidPKv
000000010290ce24 t __Z13VerticalSkewTIhEvP8FIBITMAPS1_iidPKv
000000010290d638 t __Z13VerticalSkewTItEvP8FIBITMAPS1_iidPKv
000000010290c624 t __Z15HorizontalSkewTIfEvP8FIBITMAPS1_iidPKv
000000010290b7a8 t __Z15HorizontalSkewTIhEvP8FIBITMAPS1_iidPKv
000000010290be98 t __Z15HorizontalSkewTItEvP8FIBITMAPS1_iidPKv
00000001028713c0 t __Z20AgBindServiceCommandI11AgAllocatorIL16AgAllocatorTypes1EE15AgDialogManagerPS3_v9AgPointerI8AgDialogES7_EP20AgServiceCommandBaseT_T1_MT0_FT2_T3_ET4_
000000010288eab2 t __Z20AgBindServiceCommandI11AgAllocatorIL16AgAllocatorTypes1EE6AgFile9AgPointerIS3_EvEP20AgServiceCommandBaseT_T1_MT0_FT2_vE
0000000102870fc6 t __Z20AgBindServiceCommandI11AgAllocatorIL16AgAllocatorTypes1EE8AgDialog9AgPointerIS3_EvEP20AgServiceCommandBaseT_T1_MT0_FT2_vE
00000001028e4db9 t __Z20AgBindServiceCommandI11AgAllocatorIL16AgAllocatorTypes1EEv25AgAchievementPlatformDataS3_EP20AgServiceCommandBaseT_PFT0_T1_ET2_
0000000102870cbb t __Z20AgBindServiceCommandI15AgDialogManagerPS0_v9AgPointerI8AgDialogES4_EP20AgServiceCommandBaseT0_MT_FT1_T2_ET3_
000000010288e8da t __Z20AgBindServiceCommandI6AgFile9AgPointerIS0_EvEP20AgServiceCommandBaseT0_MT_FT1_vE
0000000102870b37 t __Z20AgBindServiceCommandI8AgDialog9AgPointerIS0_EvEP20AgServiceCommandBaseT0_MT_FT1_vE
00000001028e486c t __Z20AgBindServiceCommandIv25AgAchievementPlatformDataS0_EP20AgServiceCommandBasePFT_T0_ET1_
00000001028e2d1e t __Z3i2ajPcj
0000000102deac00 D __ZGVN14AgBufferStreamI8AgBufferI11AgAllocatorIL16AgAllocatorTypes1EEEE6s_poolE
0000000102deaab0 D __ZGVN14AgBufferStreamI8AgBufferI18AgForwardAllocatorI16AgFrameAllocatorI11AgAllocatorIL16AgAllocatorTypes1EEEEEE6s_poolE
0000000102dea768 D __ZGVZN11GridCellSet7GetPoolEvE6s_pool
0000000102dea7d8 D __ZGVZN15GameBakerMemory12mallocObjectEvE21forceInitializeMemory
0000000102dea940 D __ZGVZN15GameBakerMemory13mallocPGMLVarEvE21forceInitializeMemory
0000000102dea910 D __ZGVZN15GameBakerMemory14mallocGMLValueEvE21forceInitializeMemory
0000000102dea6d0 D __ZGVZN15GameBakerMemory17mallocVarPointersEvE21forceInitializeMemory
0000000102dea6c0 D __ZGVZN15GameBakerMemory20mallocObjectInstanceEvE21forceInitializeMemory
0000000102decc00 D __ZGVZN16AgRingBufferImplI25AgAchievementPlatformData7AgMutexS1_E3popEPS0_jE4zero
0000000102debab8 D __ZGVZN16AgRingBufferImplI9AgPointerI10AgResourceE7AgMutexS3_E3popEPS2_jE4zero
0000000102deb540 D __ZGVZN16AgRingBufferImplIN20AgLeaderboardManager17StoreRankingEntryEviE3popEPS1_jE4zero
0000000102deb658 D __ZGVZN16AgRingBufferImplIN20AgLeaderboardManager17StoreRankingEntryEviE9enumerateI28SerializeStoreQueuePredicateEEjRT_iiE4zero
0000000102deb5b8 D __ZGVZN16AgRingBufferImplIN20AgLeaderboardManager17StoreRankingEntryEviE9enumerateI29CompleteStoreRankingPredicateEEjRT_iiE4zero
00000001028da9e0 t __ZN10AgJsonNodeC1ERKS_
00000001028a81ec t __ZN10AgJsonNodeC2E14AgJsonNodeTypeRKS_
00000001028dae92 t __ZN10AgJsonNodeC2E9AgPointerI14AgJsonNodeDataE
00000001028daa68 t __ZN10AgJsonNodeD1Ev
00000001028d7480 t __ZN11AgCondition9signalAllEv
00000001029152b0 t __ZN11AgDirectoryD2Ev
00000001028b8892 t __ZN11AgHashTableIN17AgConstantsPacket11ConstantDefEE5beginEv
0000000102917e30 t __ZN11AgHashTableIN17AgConstantsPacket11ConstantDefEE6insertE6AgHashRS1_
0000000102918256 t __ZN11AgHashTableIN17AgConstantsPacket11ConstantDefEE7reserveI11AgAllocatorIL16AgAllocatorTypes1EEEEvjRT_
0000000102918000 t __ZN11AgHashTableIN17AgConstantsPacket11ConstantDefEE8_getSlotE6AgHash
0000000102917fbe t __ZN11AgHashTableIN17AgConstantsPacket11ConstantDefEED2Ev
00000001028db3e6 t __ZN11AgJsonArrayC2E11AgStringRef
00000001028daf8a t __ZN11AgJsonValueC2E11AgStringRefS0_
00000001028db1b4 t __ZN11AgJsonValueC2Eb11AgStringRef
00000001028dace2 t __ZN11AgJsonValueC2Ef11AgStringRef
00000001027df2c8 t __ZN11AgReferenceI11AgTexture2dEC2ERKS1_
00000001027fb6b0 t __ZN11AgReferenceI13AgAudioSourceEC2ERKS1_
000000010287710a t __ZN11AgReferenceI13AgIndexBufferEC2ERKS1_
00000001027fba10 t __ZN11AgReferenceI14AgAudioChannelEC2ERKS1_
0000000102876f80 t __ZN11AgReferenceI14AgVertexBufferEC2ERKS1_
0000000102914d2e t __ZN11AgReferenceI9AgArchiveEC2ERKS1_
0000000102deb720 D __ZN11AgSingletonI12AgAllocatorsE11ms_instanceE
0000000102df4748 D __ZN11AgSingletonI12AgBusyScreenE11ms_instanceE
0000000102920c80 t __ZN11AgSingletonI12AgBusyScreenE14createInstanceEv
000000010292118a t __ZN11AgSingletonI12AgBusyScreenE15createSingletonEv
0000000102debd78 D __ZN11AgSingletonI12AgFileSystemE11ms_instanceE
0000000102decc58 D __ZN11AgSingletonI12AgSteamworksE11ms_instanceE
00000001028e6dbe t __ZN11AgSingletonI12AgSteamworksE14createInstanceEv
0000000102df4680 D __ZN11AgSingletonI12AgWorkerPoolE11ms_instanceE
0000000102920d8e t __ZN11AgSingletonI12AgWorkerPoolE15createSingletonEv
0000000102dea7b8 D __ZN11AgSingletonI12ButtonImagesE11ms_instanceE
000000010280e2f2 t __ZN11AgSingletonI12ButtonImagesE15createSingletonEv
0000000102debad0 D __ZN11AgSingletonI13AgUserManagerE11ms_instanceE
0000000102dea990 D __ZN11AgSingletonI13GBSaveManagerE11ms_instanceE
000000010280dd6e t __ZN11AgSingletonI13GBSaveManagerE14createInstanceEv
0000000102df4740 D __ZN11AgSingletonI14AgAudioManagerE11ms_instanceE
0000000102df4710 D __ZN11AgSingletonI14AgInputManagerE11ms_instanceE
0000000102deafc8 D __ZN11AgSingletonI15AgDialogManagerE11ms_instanceE
0000000102df4910 D __ZN11AgSingletonI15AgPlayerManagerE11ms_instanceE
000000010292111a t __ZN11AgSingletonI15AgPlayerManagerE15createSingletonEv
0000000102df4750 D __ZN11AgSingletonI15AgSystemManagerE11ms_instanceE
0000000102df4608 D __ZN11AgSingletonI16AgDisplayManagerE11ms_instanceE
0000000102df46f0 D __ZN11AgSingletonI16AgNetworkManagerE11ms_instanceE
0000000102df4700 D __ZN11AgSingletonI16AgProfileManagerE11ms_instanceE
0000000102df4728 D __ZN11AgSingletonI16AgSessionManagerE11ms_instanceE
0000000102df4738 D __ZN11AgSingletonI17AgResourceManagerE11ms_instanceE
0000000102921152 t __ZN11AgSingletonI17AgResourceManagerE15createSingletonEv
0000000102df4678 D __ZN11AgSingletonI18AgExceptionHandlerE11ms_instanceE
0000000102df4730 D __ZN11AgSingletonI20AgLeaderboardManagerE11ms_instanceE
0000000102dea7c0 D __ZN11AgSingletonI21AgAchievementsManagerE11ms_instanceE
000000010280e36a t __ZN11AgSingletonI21AgAchievementsManagerE15createSingletonEv
0000000102deb120 D __ZN11AgSingletonI21AgLocalizationManagerE11ms_instanceE
000000010280e332 t __ZN11AgSingletonI21AgLocalizationManagerE15createSingletonEv
0000000102df4720 D __ZN11AgSingletonI21AgServiceEventManagerE11ms_instanceE
0000000102882a02 t __ZN11AgStringKeyC2ERK11AgStringRefNS_8StoreKeyE
0000000102883000 t __ZN11AgStringKeyC2ERKS_
00000001027d6e9c t __ZN11CCallResultI13SteamWorkshop18CreateItemResult_tE3SetEyPS0_MS0_FvPS1_bE
00000001027d72a6 t __ZN11CCallResultI13SteamWorkshop18CreateItemResult_tED2Ev
00000001027d6e30 t __ZN11CCallResultI13SteamWorkshop24SteamUGCQueryCompleted_tE3SetEyPS0_MS0_FvPS1_bE
00000001027d71f6 t __ZN11CCallResultI13SteamWorkshop24SteamUGCQueryCompleted_tED2Ev
00000001027d6f08 t __ZN11CCallResultI13SteamWorkshop24SubmitItemUpdateResult_tE3SetEyPS0_MS0_FvPS1_bE
00000001027d7356 t __ZN11CCallResultI13SteamWorkshop24SubmitItemUpdateResult_tED2Ev
0000000102800bfe t __ZN11GridCellSet4FreeEv
00000001028016d6 t __ZN11GridCellSet6ResizeEi
0000000102808380 t __ZN11TiXmlString4initEm
000000010286a66a t __ZN12AgBusyScreenD2Ev
0000000102885ca0 t __ZN12AgFileSystemD2Ev
00000001028dab84 t __ZN12AgJsonObject8addChildE10AgJsonNode
00000001028db832 t __ZN12AgJsonObjectC2E11AgStringRef
00000001028c5736 t __ZN12AgScopedLockI11AgEventFlagED2Ev
0000000102934bfe t __ZN12AgThreadPool10cancelJobsI28FileIDMatchesCancelPredicateEEjRT_
0000000102920cc0 t __ZN12AgWorkerPool6updateEv
0000000102920dc6 t __ZN12AgWorkerPoolC2Ev
000000010282adee t __ZN12MemoryStream4OpenEj
00000001027c5c18 t __ZN12MemoryStream5CloseEv
00000001027fb596 t __ZN12SoundManager10MusicTrackC2EPKc
00000001027fbddc t __ZN12SoundManager10MusicTrackaSEOS0_
00000001027c94fe t __ZN12TiXmlPrinter8DoIndentEv
000000010288276a t __ZN13AgLeaderboardC2E11AgStringRef
00000001028828e8 t __ZN13AgLeaderboardD2Ev
0000000102913fd0 t __ZN13AgUserManagerD2Ev
000000010284cfac t __ZN13ObjectManager10ApplyDepthEP6Objecti
000000010280fa94 t __ZN13ObjectManager13OverlaySpriteD2Ev
00000001027eea66 t __ZN13TiXmlDocumentD2Ev
00000001028ea670 t __ZN14AgBufferStreamI8AgBufferI11AgAllocatorIL16AgAllocatorTypes1EEEE4readEPhj
0000000102938be0 t __ZN14AgBufferStreamI8AgBufferI11AgAllocatorIL16AgAllocatorTypes1EEEE5writeEPKhj
0000000102deaba0 D __ZN14AgBufferStreamI8AgBufferI11AgAllocatorIL16AgAllocatorTypes1EEEE6s_poolE
00000001028ea5c0 t __ZN14AgBufferStreamI8AgBufferI11AgAllocatorIL16AgAllocatorTypes1EEEEC1ERK9AgPointerIS4_Emm
000000010284714c t __ZN14AgBufferStreamI8AgBufferI11AgAllocatorIL16AgAllocatorTypes1EEEEC2ERKS5_
0000000102938ad0 t __ZN14AgBufferStreamI8AgBufferI11AgAllocatorIL16AgAllocatorTypes1EEEEdlEPv
0000000102deaa50 D __ZN14AgBufferStreamI8AgBufferI18AgForwardAllocatorI16AgFrameAllocatorI11AgAllocatorIL16AgAllocatorTypes1EEEEEE6s_poolE
00000001028451c4 t __ZN14AgBufferStreamI8AgBufferI18AgForwardAllocatorI16AgFrameAllocatorI11AgAllocatorIL16AgAllocatorTypes1EEEEEEC2ERKS9_
0000000102844d0c t __ZN14AgBufferStreamI8AgBufferI18AgForwardAllocatorI16AgFrameAllocatorI11AgAllocatorIL16AgAllocatorTypes1EEEEEEdlEPv
00000001029308f0 t __ZN14AgInputManagerD2Ev
0000000102851eb0 t __ZN14AgMemoryStreamdlEPv
0000000102896c24 t __ZN14TargaThumbnail4readEP11FreeImageIOPvm
00000001028dbce0 t __ZN15AgJsonNullValueC2Ev
00000001028db146 t __ZN15AgJsonValueDataC2E11AgStringRefS0_
00000001028db364 t __ZN15AgJsonValueDataC2E11AgStringRefb
00000001028daf18 t __ZN15AgJsonValueDataC2E11AgStringReff
00000001028c4bac t __ZN15AgRenderContext12InternalDataC2Ev
00000001028c50a4 t __ZN15AgRenderContext12InternalDataD2Ev
00000001027de366 t __ZN15AgServiceThreadC2E9AgPointerI9AgServiceEmiPKc
00000001027de5ac t __ZN15AgServiceThreadD2Ev
00000001028e6b80 t __ZN15AgSystemManagerD2Ev
000000010280e11a t __ZN15GameBakerLoader12LoaderThreadC2ERS_
00000001028e48c6 t __ZN16AgAlignedPointerI18AgRingBufferLockedI25AgAchievementPlatformDataELi1EE4freeEv
00000001028e4ae8 t __ZN16AgAlignedPointerI18AgRingBufferLockedI25AgAchievementPlatformDataELi1EEC2Ejj
000000010289293e t __ZN16AgAlignedPointerI18AgRingBufferLockedI9AgPointerI10AgResourceEELi1EE4freeEv
0000000102893806 t __ZN16AgAlignedPointerI18AgRingBufferLockedI9AgPointerI10AgResourceEELi1EEC2Ejj
000000010286dcb0 t __ZN16AgAlignedPointerI18AgRingBufferLockedIPN12AgThreadPool3JobEELi1EE4freeEv
000000010286de2c t __ZN16AgAlignedPointerI18AgRingBufferLockedIPN12AgThreadPool3JobEELi1EEC2Ejj
0000000102844d82 t __ZN16AgFrameAllocatorI11AgAllocatorIL16AgAllocatorTypes1EEE8allocateEyj
00000001027ded02 t __ZN16AgFrameAllocatorI11AgAllocatorIL16AgAllocatorTypes1EEEC2Ejjj
00000001027f5540 t __ZN16AgMemoryPoolImplI7AgMutexS0_E4freeEv
00000001028b7808 t __ZN16AgMemoryPoolImplI7AgMutexS0_E4initEjjj
000000010285f780 t __ZN16AgMemoryPoolImplI7AgMutexS0_EC2Ejjj
000000010285f860 t __ZN16AgMemoryPoolImplI7AgMutexS0_ED2Ev
00000001028c2e62 t __ZN16AgMemoryPoolImplIviE4freeEv
00000001028c2ea2 t __ZN16AgMemoryPoolImplIviE5_growEj
00000001028c2f0e t __ZN16AgMemoryPoolImplIviE6_allocEv
00000001028e4c90 t __ZN16AgRingBufferImplI25AgAchievementPlatformData7AgMutexS1_E3popEPS0_j
00000001028e4984 t __ZN16AgRingBufferImplI25AgAchievementPlatformData7AgMutexS1_E4freeEv
00000001028e4a3e t __ZN16AgRingBufferImplI25AgAchievementPlatformData7AgMutexS1_E4initEj
00000001028e4be2 t __ZN16AgRingBufferImplI25AgAchievementPlatformData7AgMutexS1_E4pushEPS0_j
00000001028e493c t __ZN16AgRingBufferImplI25AgAchievementPlatformData7AgMutexS1_ED2Ev
00000001028939f8 t __ZN16AgRingBufferImplI9AgPointerI10AgResourceE7AgMutexS3_E3popEPS2_j
00000001028929fc t __ZN16AgRingBufferImplI9AgPointerI10AgResourceE7AgMutexS3_E4freeEv
0000000102893790 t __ZN16AgRingBufferImplI9AgPointerI10AgResourceE7AgMutexS3_E4initEj
0000000102893c9c t __ZN16AgRingBufferImplI9AgPointerI10AgResourceE7AgMutexS3_E4pushEPS2_j
00000001028929b4 t __ZN16AgRingBufferImplI9AgPointerI10AgResourceE7AgMutexS3_ED2Ev
00000001028835ca t __ZN16AgRingBufferImplIN20AgLeaderboardManager17StoreRankingEntryEviE3popEPS1_j
00000001028825ae t __ZN16AgRingBufferImplIN20AgLeaderboardManager17StoreRankingEntryEviE4freeEv
0000000102881f24 t __ZN16AgRingBufferImplIN20AgLeaderboardManager17StoreRankingEntryEviE4initEj
0000000102883300 t __ZN16AgRingBufferImplIN20AgLeaderboardManager17StoreRankingEntryEviE4pushEPS1_j
00000001028820d6 t __ZN16AgRingBufferImplIN20AgLeaderboardManager17StoreRankingEntryEviE9enumerateI28SerializeStoreQueuePredicateEEjRT_ii
0000000102881ca8 t __ZN16AgRingBufferImplIN20AgLeaderboardManager17StoreRankingEntryEviE9enumerateI29CompleteStoreRankingPredicateEEjRT_ii
000000010286e6c0 t __ZN16AgRingBufferImplIPN12AgThreadPool3JobE7AgMutexS3_E3popEPS2_j
000000010286e8ac t __ZN16AgRingBufferImplIPN12AgThreadPool3JobE7AgMutexS3_E3popI20GetPriorityPredicateEEiRT_RS2_
000000010286dd6e t __ZN16AgRingBufferImplIPN12AgThreadPool3JobE7AgMutexS3_E4freeEv
000000010286ddea t __ZN16AgRingBufferImplIPN12AgThreadPool3JobE7AgMutexS3_E4initEj
000000010286e228 t __ZN16AgRingBufferImplIPN12AgThreadPool3JobE7AgMutexS3_E4pushEPS2_j
000000010286e758 t __ZN16AgRingBufferImplIPN12AgThreadPool3JobE7AgMutexS3_E9enumerateI18CancelJobPredicateEEjRT_ii
000000010286e2b4 t __ZN16AgRingBufferImplIPN12AgThreadPool3JobE7AgMutexS3_E9enumerateI20FindJobByIdPredicateEEjRT_ii
000000010286e5d4 t __ZN16AgRingBufferImplIPN12AgThreadPool3JobE7AgMutexS3_E9enumerateI21GetRemoveJobPredicateEEjRT_ii
000000010286e3a4 t __ZN16AgRingBufferImplIPN12AgThreadPool3JobE7AgMutexS3_E9enumerateI25FindJobByGroupIdPredicateEEjRT_ii
0000000102935d32 t __ZN16AgRingBufferImplIPN12AgThreadPool3JobE7AgMutexS3_E9enumerateI28FileIDMatchesCancelPredicateEEjRT_ii
000000010286e494 t __ZN16AgRingBufferImplIPN12AgThreadPool3JobE7AgMutexS3_E9enumerateINS0_20CompleteJobPredicateEEEjRT_ii
000000010286dd26 t __ZN16AgRingBufferImplIPN12AgThreadPool3JobE7AgMutexS3_ED2Ev
000000010288ec68 t __ZN16AgServiceCommandI11AgAllocatorIL16AgAllocatorTypes1EE9AgPointerI6AgFileEFvvES6_EC2IMS4_FvvEEES2_S5_T_
000000010287117c t __ZN16AgServiceCommandI11AgAllocatorIL16AgAllocatorTypes1EE9AgPointerI8AgDialogEFvvES6_EC2IMS4_FvvEEES2_S5_T_
000000010287178e t __ZN16AgServiceCommandI11AgAllocatorIL16AgAllocatorTypes1EEP15AgDialogManagerFv9AgPointerI8AgDialogEES8_E4callENS9_12TemplateTypeIvEE
0000000102871582 t __ZN16AgServiceCommandI11AgAllocatorIL16AgAllocatorTypes1EEP15AgDialogManagerFv9AgPointerI8AgDialogEES8_EC2IMS3_FvS7_EEES2_S4_T_S7_
00000001028e4ed6 t __ZN16AgServiceCommandI11AgAllocatorIL16AgAllocatorTypes1EEvFv25AgAchievementPlatformDataES4_E4callENS5_12TemplateTypeIvEE
00000001027c9fe4 t __ZN16AgServiceCommandI18AgForwardAllocatorI16AgFrameAllocatorI11AgAllocatorIL16AgAllocatorTypes1EEEEP17GameBakerGraphicsFijES9_E4callIiEEbNSA_12TemplateTypeIT_EE
00000001027edbc4 t __ZN16AgServiceCommandI18AgForwardAllocatorI16AgFrameAllocatorI11AgAllocatorIL16AgAllocatorTypes1EEEEP17GameBakerGraphicsFvjjEFviiEE4callENSB_12TemplateTypeIvEE
00000001027ca046 t __ZN16AgServiceCommandI18AgForwardAllocatorI16AgFrameAllocatorI11AgAllocatorIL16AgAllocatorTypes1EEEEP17GameBakerGraphicsFvjjiiiES9_E4callENSA_12TemplateTypeIvEE
00000001027eda7a t __ZN16AgServiceCommandI18AgForwardAllocatorI16AgFrameAllocatorI11AgAllocatorIL16AgAllocatorTypes1EEEEP18SilverWareRendererFviES9_E4callENSA_12TemplateTypeIvEE
00000001027eda16 t __ZN16AgServiceCommandI18AgForwardAllocatorI16AgFrameAllocatorI11AgAllocatorIL16AgAllocatorTypes1EEEEP18SilverWareRendererFvjRK9AgVector4EFv12AgClearFlagsS9_EE4callENSF_12TemplateTypeIvEE
000000010286c7d0 t __ZN16AgSpriteRenderer12InternalDataC2Ev
00000001028467d8 t __ZN16MemoryStreamPoolI11AgAllocatorIL16AgAllocatorTypes1EEE10freeStreamEy
00000001028461d2 t __ZN16MemoryStreamPoolI11AgAllocatorIL16AgAllocatorTypes1EEE15queueFreeStreamEy
00000001028458fe t __ZN16MemoryStreamPoolI11AgAllocatorIL16AgAllocatorTypes1EEE16processFreeQueueEv
0000000102846da2 t __ZN16MemoryStreamPoolI11AgAllocatorIL16AgAllocatorTypes1EEE17_getBestFreeEntryEx
00000001028465d4 t __ZN16MemoryStreamPoolI11AgAllocatorIL16AgAllocatorTypes1EEE7releaseEv
0000000102845988 t __ZN16MemoryStreamPoolI11AgAllocatorIL16AgAllocatorTypes1EEE9getStreamEx
0000000102846256 t __ZN16MemoryStreamPoolI11AgAllocatorIL16AgAllocatorTypes1EEEC2ES2_
0000000102846508 t __ZN16MemoryStreamPoolI11AgAllocatorIL16AgAllocatorTypes1EEED2Ev
0000000102844760 t __ZN16MemoryStreamPoolI18AgForwardAllocatorI16AgFrameAllocatorI11AgAllocatorIL16AgAllocatorTypes1EEEEE10freeStreamEy
0000000102842b50 t __ZN16MemoryStreamPoolI18AgForwardAllocatorI16AgFrameAllocatorI11AgAllocatorIL16AgAllocatorTypes1EEEEE15queueFreeStreamEy
0000000102841816 t __ZN16MemoryStreamPoolI18AgForwardAllocatorI16AgFrameAllocatorI11AgAllocatorIL16AgAllocatorTypes1EEEEE16processFreeQueueEv
0000000102844bba t __ZN16MemoryStreamPoolI18AgForwardAllocatorI16AgFrameAllocatorI11AgAllocatorIL16AgAllocatorTypes1EEEEE17_getBestFreeEntryEx
0000000102843280 t __ZN16MemoryStreamPoolI18AgForwardAllocatorI16AgFrameAllocatorI11AgAllocatorIL16AgAllocatorTypes1EEEEE7releaseEv
00000001028418a0 t __ZN16MemoryStreamPoolI18AgForwardAllocatorI16AgFrameAllocatorI11AgAllocatorIL16AgAllocatorTypes1EEEEE9getStreamEx
0000000102842df8 t __ZN16MemoryStreamPoolI18AgForwardAllocatorI16AgFrameAllocatorI11AgAllocatorIL16AgAllocatorTypes1EEEEEC2ES6_
00000001028431b4 t __ZN16MemoryStreamPoolI18AgForwardAllocatorI16AgFrameAllocatorI11AgAllocatorIL16AgAllocatorTypes1EEEEED2Ev
00000001027c9770 t __ZN16TiXmlDeclarationD2Ev
0000000102886022 t __ZN17AgMacStorageMountC2ERK8AgStringRK6AgPath9AgPointerI6AgUserE
000000010286800e t __ZN17AgMountErrorEventC2ERKS_
0000000102868f98 t __ZN17AgMountErrorEventaSEOS_
00000001028e92fc t __ZN18AgReferencedObject7disposeI14AgJsonNodeDataEEvPT_
00000001027dedd0 t __ZN18AgReferencedObject7disposeI16AgSpriteRendererEEvPT_
0000000102875714 t __ZN18AgReferencedObject7disposeI17AgConstantsPacketEEvPT_
000000010284308c t __ZN18AgReferencedObject7disposeI26AgStreamingPrimitiveBufferEEvPT_
00000001027d2b24 t __ZN18SilverWareRenderer10readPixelsE9AgPointerI11AgTexture2dEPvi
00000001027ed9ca T __ZN18SilverWareRenderer10setScissorEi
00000001027f490a t __ZN18SilverWareRenderer11setConstantE15ShaderConstantsPfj
00000001027b7e0c t __ZN18SilverWareRenderer11setConstantE15ShaderConstantsff
0000000102842468 t __ZN18SilverWareRenderer11setConstantE15ShaderConstantsffff
000000010283a7f4 t __ZN18SilverWareRenderer12drawSaveIconERK10SavingIconRK9AgVector2
0000000102824582 t __ZN18SilverWareRenderer12setTransformERK11AgMatrix4x4
00000001028243b0 t __ZN18SilverWareRenderer13setProjectionERK11AgMatrix4x4
00000001027ddc1e t __ZN18SilverWareRenderer13setResolutionEjj
0000000102851f00 t __ZN18SilverWareRenderer14_applyMatricesE9AgPointerI6ShaderE
000000010284261c t __ZN18SilverWareRenderer14applyConstantsEv
00000001027dda80 t __ZN18SilverWareRenderer14createInstanceE9AgPointerI15AgRenderContextE
00000001027d261c t __ZN18SilverWareRenderer14resetResourcesEv
00000001028420c0 t __ZN18SilverWareRenderer16setShaderProgramE9AgPointerI6ShaderE
00000001028518e0 t __ZN18SilverWareRenderer17createIndexBufferEPKvj11AgIndexType
000000010285f380 t __ZN18SilverWareRenderer18createVertexBufferEPKvjRK19AgVertexDeclaration
00000001027ddf50 t __ZN18SilverWareRenderer18drawSpriteRendererE9AgPointerI16AgSpriteRendererE
0000000102842788 t __ZN18SilverWareRenderer19drawPrimitiveBufferE9AgPointerI26AgStreamingPrimitiveBufferE15AgPrimitiveTypeS0_I8AgStreamEjS0_I13AgIndexBufferEjj
00000001027ddd84 t __ZN18SilverWareRenderer20setDisplayPropertiesEjj12AgWindowModei
00000001027ed880 T __ZN18SilverWareRenderer5clearEjRK9AgVector4
00000001027de960 t __ZN18SilverWareRendererD2Ev
00000001027f8eb8 t __ZN18SortedInstanceListI13DrawPredicateE3addEP6Object
000000010284d02c t __ZN18SortedInstanceListI13DrawPredicateE6removeEP6Object
000000010284d190 t __ZN18SortedInstanceListI13StepPredicateE3addEP6Object
00000001027f8d1c t __ZN18SortedInstanceListI13StepPredicateE6removeEP6Object
0000000102882a36 t __ZN20AgLeaderboardManager17StoreRankingEntryC2ERKS0_
0000000102882cb0 t __ZN20AgLeaderboardManager17StoreRankingEntryD2Ev
000000010288336e t __ZN20AgLeaderboardManager17StoreRankingEntryaSERKS0_
0000000102882340 t __ZN20AgLeaderboardManagerC2Ev
0000000102882718 t __ZN20AgLeaderboardManagerD2Ev
0000000102883074 t __ZN20AgLeaderboardRankingC2Ex11AgStringRef9AgPointerI8AgBufferI11AgAllocatorIL16AgAllocatorTypes1EEEE
00000001028c2be0 t __ZN20AgThreadedMemoryPool5allocEv
00000001028c2c56 t __ZN20AgThreadedMemoryPool7releaseEPv
00000001028c2cde t __ZN20AgThreadedMemoryPoolC2Ejjj
000000010286830c t __ZN21AgEventDispatcherBaseI12AgMountEventE4callERKS0_
00000001028683ba t __ZN21AgEventDispatcherBaseI14AgUnmountEventE4callERKS0_
0000000102887778 t __ZN21AgEventDispatcherBaseI15AgResumingEventE4bindE11AgDelegate1IRKS0_vE
00000001028a88c8 t __ZN21AgEventDispatcherBaseI15AgResumingEventE4callERKS0_
00000001029315a4 t __ZN21AgEventDispatcherBaseI15AgResumingEventE6unbindE11AgDelegate1IRKS0_vE
0000000102918824 t __ZN21AgEventDispatcherBaseI15AgShutdownEventE4bindE11AgDelegate1IRKS0_vE
00000001028a8976 t __ZN21AgEventDispatcherBaseI15AgShutdownEventE4callERKS0_
0000000102918a40 t __ZN21AgEventDispatcherBaseI15AgShutdownEventE6unbindE11AgDelegate1IRKS0_vE
00000001028a86b2 t __ZN21AgEventDispatcherBaseI16AgActivatedEventE4callERKS0_
000000010289ae26 t __ZN21AgEventDispatcherBaseI16AgUserAddedEventE4bindE11AgDelegate1IRKS0_vE
0000000102887990 t __ZN21AgEventDispatcherBaseI16AgUserAddedEventE4callERKS0_
000000010289b3ca t __ZN21AgEventDispatcherBaseI16AgUserAddedEventE6unbindE11AgDelegate1IRKS0_vE
00000001028697e4 t __ZN21AgEventDispatcherBaseI17AgMountErrorEventE4bindE11AgDelegate1IRKS0_vE
000000010286825e t __ZN21AgEventDispatcherBaseI17AgMountErrorEventE4callERKS0_
00000001028a881a t __ZN21AgEventDispatcherBaseI17AgSuspendingEventE4callERKS0_
0000000102931480 t __ZN21AgEventDispatcherBaseI17AgSuspendingEventE6unbindE11AgDelegate1IRKS0_vE
00000001028a876c t __ZN21AgEventDispatcherBaseI18AgDeactivatedEventE4callERKS0_
000000010289b0c6 t __ZN21AgEventDispatcherBaseI18AgUserRemovedEventE4bindE11AgDelegate1IRKS0_vE
0000000102887a3e t __ZN21AgEventDispatcherBaseI18AgUserRemovedEventE4callERKS0_
000000010289b4ee t __ZN21AgEventDispatcherBaseI18AgUserRemovedEventE6unbindE11AgDelegate1IRKS0_vE
0000000102887aec t __ZN21AgEventDispatcherBaseI18AgUserUpdatedEventE4callERKS0_
000000010283ac3a t __ZN21AgEventDispatcherBaseI20AgMountWriteEndEventE4bindE11AgDelegate1IRKS0_vE
0000000102868516 t __ZN21AgEventDispatcherBaseI20AgMountWriteEndEventE4callERKS0_
00000001028bc12e t __ZN21AgEventDispatcherBaseI20AgNetworkOnlineEventE4callERKS0_
00000001027dedfc t __ZN21AgEventDispatcherBaseI21AgDisplayChangedEventE4bindE11AgDelegate1IRKS0_vE
00000001028a8a24 t __ZN21AgEventDispatcherBaseI21AgDisplayChangedEventE4callERKS0_
00000001028bc1e8 t __ZN21AgEventDispatcherBaseI21AgNetworkOfflineEventE4callERKS0_
000000010293100c t __ZN21AgEventDispatcherBaseI22AgControllerAddedEventE4callERKS0_
000000010283a98e t __ZN21AgEventDispatcherBaseI22AgMountWriteBeginEventE4bindE11AgDelegate1IRKS0_vE
0000000102868468 t __ZN21AgEventDispatcherBaseI22AgMountWriteBeginEventE4callERKS0_
00000001029310ba t __ZN21AgEventDispatcherBaseI24AgControllerRemovedEventE4callERKS0_
0000000102931168 t __ZN21AgEventDispatcherBaseI31AgControllerPairingChangedEventE4callERKS0_
00000001028dd45a t __ZN21AgEventDispatcherBaseI9AgPointerI9AgSessionEE4callERKS2_
00000001028bbdca t __ZN21AgMacStorageDirectory33AgMacStorageDirectoryInternalDataD2Ev
0000000102867336 t __ZN22AgAsyncEventDispatcherI12AgMountEventE3runEv
00000001028675ce t __ZN22AgAsyncEventDispatcherI12AgMountEventE6invokeERKS0_
00000001028673dc t __ZN22AgAsyncEventDispatcherI14AgUnmountEventE3runEv
000000010286769c t __ZN22AgAsyncEventDispatcherI14AgUnmountEventE6invokeERKS0_
00000001028a7cf8 t __ZN22AgAsyncEventDispatcherI15AgResumingEventE3runEv
00000001028a8052 t __ZN22AgAsyncEventDispatcherI15AgResumingEventE6invokeERKS0_
00000001028a7d9c t __ZN22AgAsyncEventDispatcherI15AgShutdownEventE3runEv
00000001028a80cc t __ZN22AgAsyncEventDispatcherI15AgShutdownEventE6invokeERKS0_
00000001028a7b0c t __ZN22AgAsyncEventDispatcherI16AgActivatedEventE3runEv
00000001028a7ee4 t __ZN22AgAsyncEventDispatcherI16AgActivatedEventE6invokeERKS0_
0000000102887070 t __ZN22AgAsyncEventDispatcherI16AgUserAddedEventE3runEv
0000000102887c48 t __ZN22AgAsyncEventDispatcherI16AgUserAddedEventE6invokeERKS0_
0000000102867290 t __ZN22AgAsyncEventDispatcherI17AgMountErrorEventE3runEv
00000001028b74ac t __ZN22AgAsyncEventDispatcherI17AgMountErrorEventE6invokeERKS0_
000000010286776a t __ZN22AgAsyncEventDispatcherI17AgMountErrorEventE6removeI25RemoveMountEventPredicateEEjRT_
00000001028a7c54 t __ZN22AgAsyncEventDispatcherI17AgSuspendingEventE3runEv
00000001028a7fd8 t __ZN22AgAsyncEventDispatcherI17AgSuspendingEventE6invokeERKS0_
00000001028a7bb0 t __ZN22AgAsyncEventDispatcherI18AgDeactivatedEventE3runEv
00000001028a7f5e t __ZN22AgAsyncEventDispatcherI18AgDeactivatedEventE6invokeERKS0_
0000000102887116 t __ZN22AgAsyncEventDispatcherI18AgUserRemovedEventE3runEv
000000010288817a t __ZN22AgAsyncEventDispatcherI18AgUserRemovedEventE6invokeERKS0_
00000001028871bc t __ZN22AgAsyncEventDispatcherI18AgUserUpdatedEventE3runEv
000000010288854a t __ZN22AgAsyncEventDispatcherI18AgUserUpdatedEventE6invokeERKS0_
0000000102867528 t __ZN22AgAsyncEventDispatcherI20AgMountWriteEndEventE3runEv
000000010286913c t __ZN22AgAsyncEventDispatcherI20AgMountWriteEndEventE6invokeERKS0_
00000001028a7e40 t __ZN22AgAsyncEventDispatcherI21AgDisplayChangedEventE3runEv
00000001028a8146 t __ZN22AgAsyncEventDispatcherI21AgDisplayChangedEventE6invokeERKS0_
000000010292f1ea t __ZN22AgAsyncEventDispatcherI22AgControllerAddedEventE3runEv
000000010293176a t __ZN22AgAsyncEventDispatcherI22AgControllerAddedEventE6invokeERKS0_
0000000102867482 t __ZN22AgAsyncEventDispatcherI22AgMountWriteBeginEventE3runEv
00000001028685c4 t __ZN22AgAsyncEventDispatcherI22AgMountWriteBeginEventE6invokeERKS0_
000000010292f290 t __ZN22AgAsyncEventDispatcherI24AgControllerRemovedEventE3runEv
0000000102931dc4 t __ZN22AgAsyncEventDispatcherI24AgControllerRemovedEventE6invokeERKS0_
000000010292f336 t __ZN22AgAsyncEventDispatcherI31AgControllerPairingChangedEventE3runEv
0000000102932486 t __ZN22AgAsyncEventDispatcherI31AgControllerPairingChangedEventE6invokeERKS0_
00000001028dd180 t __ZN22AgAsyncEventDispatcherI9AgPointerI9AgSessionEE3runEv
0000000102937c9c t __ZN22AgAsyncEventDispatcherI9AgPointerI9AgSessionEE6invokeERKS2_
00000001028d0c42 t __ZN22AgAudioChannelBaseDataC2Ev
00000001028b75a2 t __ZN22AgDelayedSaveDataMountD2Ev
000000010280df10 t __ZN22GameBakerLoadingScreenD2Ev
000000010286a5c0 t __ZN23AgEventFlagInternalDataC2Ev
0000000102875a7c t __ZN24AgRenderListInternalDataD2Ev
00000001028a8620 t __ZN24AgSilverWareDebugChannelC2E11AgStringRef
00000001028c1ce4 t __ZN25AgStandardMouseControllerC2Ej
00000001028e8e26 t __ZN27AgControllerRumbleComponentC2Ej
000000010292fa10 t __ZN27AgStandardGamepadControllerC2Ej
00000001028c27f2 t __ZN28AgStandardKeyboardControllerC2Ej
00000001028838c0 t __ZN28SerializeStoreQueuePredicateclERKN20AgLeaderboardManager17StoreRankingEntryE
00000001027f4a94 t __ZN2GB4Font14FontCacheEntryC2Ev
00000001027f470c t __ZN2GB4Font14FontCacheEntryaSERKS1_
0000000102932624 t __ZN31AgControllerPairingChangedEventC2ERKS_
00000001029305ec t __ZN31AgControllerPairingChangedEventD2Ev
0000000102879a7a t __ZN35AgPlatformResourceShaderProgramBaseD2Ev
0000000102dea890 D __ZN3gml12GMLResourcesINS_10GMLSurfaceEE11ms_instanceE
0000000102802efe t __ZN3gml12GMLResourcesINS_10GMLSurfaceEE15destroyInstanceEv
0000000102dea980 D __ZN3gml12GMLResourcesINS_10GMLTextureEE11ms_instanceE
00000001027cb63a t __ZN3gml12GMLResourcesINS_10GMLTextureEE14createResourceEv
00000001028030a2 t __ZN3gml12GMLResourcesINS_10GMLTextureEE15destroyInstanceEv
000000010281e076 t __ZN3gml12GMLResourcesINS_13GMLBackgroundEE11deserializeER12StreamReader
0000000102dea950 D __ZN3gml12GMLResourcesINS_13GMLBackgroundEE11ms_instanceE
0000000102802ec2 t __ZN3gml12GMLResourcesINS_13GMLBackgroundEE15destroyInstanceEv
000000010281f0f2 t __ZN3gml12GMLResourcesINS_13GMLBackgroundEE9serializeER12StreamWriter
0000000102dea778 D __ZN3gml12GMLResourcesINS_17GMLObjectInstanceEE11ms_instanceE
0000000102802f76 t __ZN3gml12GMLResourcesINS_17GMLObjectInstanceEE15destroyInstanceEv
000000010281e6aa t __ZN3gml12GMLResourcesINS_7GMLFileEE11deserializeER12StreamReader
0000000102dea960 D __ZN3gml12GMLResourcesINS_7GMLFileEE11ms_instanceE
0000000102802fee t __ZN3gml12GMLResourcesINS_7GMLFileEE15destroyInstanceEv
000000010281f32c t __ZN3gml12GMLResourcesINS_7GMLFileEE9serializeER12StreamWriter
0000000102dea770 D __ZN3gml12GMLResourcesINS_7GMLFontEE11ms_instanceE
00000001028030de t __ZN3gml12GMLResourcesINS_7GMLFontEE15destroyInstanceEv
000000010281e47e t __ZN3gml12GMLResourcesINS_7GMLGridEE11deserializeER12StreamReader
0000000102dea7b0 D __ZN3gml12GMLResourcesINS_7GMLGridEE11ms_instanceE
0000000102809db4 t __ZN3gml12GMLResourcesINS_7GMLGridEE14createResourceEv
0000000102802f3a t __ZN3gml12GMLResourcesINS_7GMLGridEE15destroyInstanceEv
000000010281f25e t __ZN3gml12GMLResourcesINS_7GMLGridEE9serializeER12StreamWriter
000000010281eca6 t __ZN3gml12GMLResourcesINS_7GMLListEE11deserializeER12StreamReader
0000000102dea988 D __ZN3gml12GMLResourcesINS_7GMLListEE11ms_instanceE
000000010281eeac t __ZN3gml12GMLResourcesINS_7GMLListEE14createResourceEv
000000010281f54e t __ZN3gml12GMLResourcesINS_7GMLListEE9serializeER12StreamWriter
000000010281de4a t __ZN3gml12GMLResourcesINS_7GMLPathEE11deserializeER12StreamReader
0000000102dea6b0 D __ZN3gml12GMLResourcesINS_7GMLPathEE11ms_instanceE
0000000102809b50 t __ZN3gml12GMLResourcesINS_7GMLPathEE14createResourceEv
0000000102802e86 t __ZN3gml12GMLResourcesINS_7GMLPathEE15destroyInstanceEv
000000010281f024 t __ZN3gml12GMLResourcesINS_7GMLPathEE9serializeER12StreamWriter
000000010281e8ae t __ZN3gml12GMLResourcesINS_7GMLRoomEE11deserializeER12StreamReader
0000000102dea958 D __ZN3gml12GMLResourcesINS_7GMLRoomEE11ms_instanceE
000000010280302a t __ZN3gml12GMLResourcesINS_7GMLRoomEE15destroyInstanceEv
000000010281f3e2 t __ZN3gml12GMLResourcesINS_7GMLRoomEE9serializeER12StreamWriter
000000010281eab2 t __ZN3gml12GMLResourcesINS_8GMLSoundEE11deserializeER12StreamReader
0000000102dea970 D __ZN3gml12GMLResourcesINS_8GMLSoundEE11ms_instanceE
0000000102803066 t __ZN3gml12GMLResourcesINS_8GMLSoundEE15destroyInstanceEv
000000010281f498 t __ZN3gml12GMLResourcesINS_8GMLSoundEE9serializeER12StreamWriter
0000000102dea780 D __ZN3gml12GMLResourcesINS_9GMLObjectEE11ms_instanceE
0000000102802fb2 t __ZN3gml12GMLResourcesINS_9GMLObjectEE15destroyInstanceEv
000000010281e27a t __ZN3gml12GMLResourcesINS_9GMLSpriteEE11deserializeER12StreamReader
0000000102dea158 D __ZN3gml12GMLResourcesINS_9GMLSpriteEE11ms_instanceE
000000010280311a t __ZN3gml12GMLResourcesINS_9GMLSpriteEE15destroyInstanceEv
000000010281f1a8 t __ZN3gml12GMLResourcesINS_9GMLSpriteEE9serializeER12StreamWriter
00000001027f8b9e t __ZN3gml17GMLObjectInstance12SetDirectionEd
0000000102809c44 t __ZN3gml17GMLObjectInstance8SetSpeedEd
00000001027f88e6 t __ZN3gml17GMLObjectInstance8SetSpeedEdd
00000001027b2974 t __ZN3gml17GMLObjectInstanceC2EPNS_9GMLObjectEi
000000010281dc9e t __ZN3gml6GMLMap11DeserializeER12StreamReader
000000010281efa0 t __ZN3gml6GMLMap9SerializeER12StreamWriter
                 U __ZN4FMOD14ChannelControl4stopEv
                 U __ZN4FMOD14ChannelControl6addDSPEiPNS_3DSPE
                 U __ZN4FMOD14ChannelControl6setPanEf
                 U __ZN4FMOD14ChannelControl7setModeEj
                 U __ZN4FMOD14ChannelControl9isPlayingEPb
                 U __ZN4FMOD14ChannelControl9removeDSPEPNS_3DSPE
                 U __ZN4FMOD14ChannelControl9setPausedEb
                 U __ZN4FMOD14ChannelControl9setVolumeEf
                 U __ZN4FMOD3DSP15setParameterIntEii
                 U __ZN4FMOD3DSP16getParameterDataEiPPvPjPci
                 U __ZN4FMOD3DSP7releaseEv
                 U __ZN4FMOD5Sound12getOpenStateEP14FMOD_OPENSTATEPjPbS4_
                 U __ZN4FMOD5Sound13setLoopPointsEjjjj
                 U __ZN4FMOD5Sound19getMusicNumChannelsEPi
                 U __ZN4FMOD5Sound7releaseEv
                 U __ZN4FMOD6System10getVersionEPj
                 U __ZN4FMOD6System11createSoundEPKcjP22FMOD_CREATESOUNDEXINFOPPNS_5SoundE
                 U __ZN4FMOD6System11setCallbackEPF11FMOD_RESULTP11FMOD_SYSTEMjPvS4_S4_Ej
                 U __ZN4FMOD6System12createStreamEPKcjP22FMOD_CREATESOUNDEXINFOPPNS_5SoundE
                 U __ZN4FMOD6System13getDriverInfoEiPciP9FMOD_GUIDPiP16FMOD_SPEAKERMODES4_
                 U __ZN4FMOD6System13getNumDriversEPi
                 U __ZN4FMOD6System13setFileSystemEPF11FMOD_RESULTPKcPjPPvS5_EPFS1_S5_S5_EPFS1_S5_S5_jS4_S5_EPFS1_S5_jS5_EPFS1_P18FMOD_ASYNCREADINFOS5_ESI_i
                 U __ZN4FMOD6System15createDSPByTypeE13FMOD_DSP_TYPEPPNS_3DSPE
                 U __ZN4FMOD6System16setDSPBufferSizeEji
                 U __ZN4FMOD6System17setSoftwareFormatEi16FMOD_SPEAKERMODEi
                 U __ZN4FMOD6System4initEijPv
                 U __ZN4FMOD6System5closeEv
                 U __ZN4FMOD6System6updateEv
                 U __ZN4FMOD6System7releaseEv
                 U __ZN4FMOD6System9playSoundEPNS_5SoundEPNS_12ChannelGroupEbPPNS_7ChannelE
                 U __ZN4FMOD6System9setDriverEi
                 U __ZN4FMOD6System9setOutputE15FMOD_OUTPUTTYPE
                 U __ZN4FMOD7Channel11getPositionEPjj
                 U __ZN4FMOD7Channel11setPositionEjj
                 U __ZN4FMOD7Channel12getFrequencyEPf
                 U __ZN4FMOD7Channel12setFrequencyEf
                 U __ZN4FMOD7Channel12setLoopCountEi
00000001028534b8 t __ZN4ListIPN3gml17GMLObjectInstanceEEC2Ev
0000000102853642 t __ZN4ListIPN3gml17GMLObjectInstanceEED2Ev
0000000102915280 t __ZN6AgPathC2ERK11AgStringRef
0000000102923140 t __ZN7AgMountD2Ev
00000001028e4800 t __ZN7AgQueueI25AgAchievementPlatformDataE3popERS0_i
00000001028e4a08 t __ZN7AgQueueI25AgAchievementPlatformDataE4freeEv
00000001028e4730 t __ZN7AgQueueI25AgAchievementPlatformDataE4initEj
00000001028e47a2 t __ZN7AgQueueI25AgAchievementPlatformDataE4pushEPS0_j
0000000102891b1e t __ZN7AgQueueI9AgPointerI10AgResourceEE3popERS2_i
000000010289198c t __ZN7AgQueueI9AgPointerI10AgResourceEE4freeEv
00000001028918a0 t __ZN7AgQueueI9AgPointerI10AgResourceEE4initEj
0000000102891b80 t __ZN7AgQueueI9AgPointerI10AgResourceEE4pushES2_
000000010286da5a t __ZN7AgQueueIPN12AgThreadPool3JobEE3popERS2_i
000000010286dabc t __ZN7AgQueueIPN12AgThreadPool3JobEE3popI20GetPriorityPredicateEEiRT_RS2_i
000000010286ddb4 t __ZN7AgQueueIPN12AgThreadPool3JobEE4freeEv
000000010286d8ee t __ZN7AgQueueIPN12AgThreadPool3JobEE4initEj
000000010286da06 t __ZN7AgQueueIPN12AgThreadPool3JobEE4pushES2_
00000001028b77a8 t __ZN8AgBufferI11AgAllocatorIL16AgAllocatorTypes1EEE5resetEm
00000001028470f8 t __ZN8AgBufferI11AgAllocatorIL16AgAllocatorTypes1EEE6resizeEm
0000000102846ef8 t __ZN8AgBufferI11AgAllocatorIL16AgAllocatorTypes1EEE9_allocateEm
0000000102846f28 t __ZN8AgBufferI11AgAllocatorIL16AgAllocatorTypes1EEED2Ev
000000010284517c t __ZN8AgBufferI18AgForwardAllocatorI16AgFrameAllocatorI11AgAllocatorIL16AgAllocatorTypes1EEEEE6resizeEm
0000000102844d5c t __ZN8AgBufferI18AgForwardAllocatorI16AgFrameAllocatorI11AgAllocatorIL16AgAllocatorTypes1EEEEE9_allocateEm
000000010289a67e t __ZN8AgPlayer16removeControllerEj
0000000102893900 t __ZN9AgFactoryI10AgResourceE11allocObjectE6AgHash
00000001028919c2 t __ZN9AgFactoryI10AgResourceE11allocObjectEPKc
0000000102892b3c t __ZN9AgFactoryI10AgResourceE12registerTypeI11AgTexture2dEEvPKc
0000000102893696 t __ZN9AgFactoryI10AgResourceE12registerTypeI12AgRenderListEEvPKc
00000001028934a2 t __ZN9AgFactoryI10AgResourceE12registerTypeI13AgIndexBufferEEvPKc
00000001028933a8 t __ZN9AgFactoryI10AgResourceE12registerTypeI14AgVertexBufferEEvPKc
00000001028932ae t __ZN9AgFactoryI10AgResourceE12registerTypeI15AgShaderProgramEEvPKc
000000010289359c t __ZN9AgFactoryI10AgResourceE12registerTypeI17AgConstantsBufferEEvPKc
00000001028931b4 t __ZN9AgFactoryI10AgResourceE12registerTypeI8AgShaderEEvPKc
0000000102891912 t __ZN9AgFactoryI10AgResourceE4freeEv
0000000102925170 t __ZN9AgPointerI6AgUserED1Ev
00000001028d4790 t __ZN9AgProfileC2Eyx
00000001027de21c t __ZN9AgServiceC2E11AgStringRefm
00000001028d0bc0 t __ZN9AgVector39normalizeERf
00000001027d7514 t __ZN9CCallbackI13SteamWorkshop15ItemInstalled_tLb0EE8RegisterEPS0_MS0_FvPS1_E
00000001027d717a t __ZN9CCallbackI13SteamWorkshop15ItemInstalled_tLb0EED2Ev
00000001027d74ba t __ZN9CCallbackI13SteamWorkshop35RemoteStoragePublishedFileDeleted_tLb0EE8RegisterEPS0_MS0_FvPS1_E
00000001027d70fe t __ZN9CCallbackI13SteamWorkshop35RemoteStoragePublishedFileDeleted_tLb0EED2Ev
00000001027d7406 t __ZN9CCallbackI13SteamWorkshop38RemoteStoragePublishedFileSubscribed_tLb0EE8RegisterEPS0_MS0_FvPS1_E
00000001027d7006 t __ZN9CCallbackI13SteamWorkshop38RemoteStoragePublishedFileSubscribed_tLb0EED2Ev
00000001027d7460 t __ZN9CCallbackI13SteamWorkshop40RemoteStoragePublishedFileUnsubscribed_tLb0EE8RegisterEPS0_MS0_FvPS1_E
00000001027d7082 t __ZN9CCallbackI13SteamWorkshop40RemoteStoragePublishedFileUnsubscribed_tLb0EED2Ev
00000001028c533e t __ZN9RenderJobC2ERK9AgPointerI15AgRenderContextERKS0_I12AgRenderListE
00000001028c5598 t __ZN9RenderJobD2Ev
000000010282d16c t __ZN9TiXmlTextC2EPKc
0000000102811042 T __ZNK11AgDelegate0IvE20InvokeStaticFunctionEv
00000001028709c0 t __ZNK11AgDelegate1I9AgPointerI8AgDialogEvEclES2_
00000001027f55a4 T __ZNK11AgDelegate2IRK9AgPointerI15AgRenderContextEyvE20InvokeStaticFunctionES4_y
0000000102917f16 t __ZNK11AgHashTableIN17AgConstantsPacket11ConstantDefEE5beginEv
000000010291821e t __ZNK11AgHashTableIN17AgConstantsPacket11ConstantDefEE9_iteratorIRS1_PS1_E4incrEv
00000001028385d8 t __ZNK12AgController12getComponentI25AgControllerAxisComponentEERT_j
000000010292f174 t __ZNK12AgController12getComponentI27AgControllerButtonComponentEERT_j
000000010282ae48 t __ZNK12RemoveStoredclEP6Object
000000010285f70a t __ZNK14AgBufferStreamI8AgBufferI18AgForwardAllocatorI16AgFrameAllocatorI11AgAllocatorIL16AgAllocatorTypes1EEEEEE9getBufferEv
00000001029238fe t __ZNK19AgArchiveMapCompareclERK8AgStringS2_
000000010292f3dc t __ZNK27AgControllerButtonComponent13isJustPressedEt
000000010292f536 t __ZNK27AgControllerButtonComponenteqERKS_
000000010280aec0 T __ZNK3gml7PGMLVar17bool_compare_funcEv
00000001028d5d42 t __ZNK6AgPathplERKS_
000000010289a5e0 t __ZNK8AgPlayer13getControllerEj
0000000102905808 t __ZNKSt3__111basic_regexIcNS_12regex_traitsIcEEE16__match_at_startINS_9allocatorINS_9sub_matchIPKcEEEEEEbS8_S8_RNS_13match_resultsIS8_T_EENS_15regex_constants15match_flag_typeEb
00000001028fecfe t __ZNKSt3__111basic_regexIcNS_12regex_traitsIcEEE21__match_at_start_ecmaINS_9allocatorINS_9sub_matchIPKcEEEEEEbS8_S8_RNS_13match_resultsIS8_T_EENS_15regex_constants15match_flag_typeEb
0000000102905cec t __ZNKSt3__111basic_regexIcNS_12regex_traitsIcEEE27__match_at_start_posix_subsINS_9allocatorINS_9sub_matchIPKcEEEEEEbS8_S8_RNS_13match_resultsIS8_T_EENS_15regex_constants15match_flag_typeEb
000000010290583e t __ZNKSt3__111basic_regexIcNS_12regex_traitsIcEEE29__match_at_start_posix_nosubsINS_9allocatorINS_9sub_matchIPKcEEEEEEbS8_S8_RNS_13match_resultsIS8_T_EENS_15regex_constants15match_flag_typeEb
000000010290565e t __ZNKSt3__111basic_regexIcNS_12regex_traitsIcEEE8__searchINS_9allocatorINS_9sub_matchIPKcEEEEEEbS8_S8_RNS_13match_resultsIS8_T_EENS_15regex_constants15match_flag_typeE
                 U __ZNKSt3__112basic_stringIcNS_11char_traitsIcEENS_9allocatorIcEEE7compareEPKc
00000001029041d0 t __ZNKSt3__112regex_traitsIcE18__lookup_classnameIPKcEEjT_S5_bc
0000000102903f0c t __ZNKSt3__112regex_traitsIcE19__transform_primaryINS_11__wrap_iterIPcEEEENS_12basic_stringIcNS_11char_traitsIcEENS_9allocatorIcEEEET_SC_c
00000001029021f6 t __ZNKSt3__112regex_traitsIcE19__transform_primaryIPcEENS_12basic_stringIcNS_11char_traitsIcEENS_9allocatorIcEEEET_SA_c
0000000102903c68 t __ZNKSt3__112regex_traitsIcE20__lookup_collatenameIPKcEENS_12basic_stringIcNS_11char_traitsIcEENS_9allocatorIcEEEET_SB_c
0000000102901f52 t __ZNKSt3__112regex_traitsIcE20__lookup_collatenameIPcEENS_12basic_stringIcNS_11char_traitsIcEENS_9allocatorIcEEEET_SA_c
000000010290425a t __ZNKSt3__112regex_traitsIcE9transformINS_11__wrap_iterIPcEEEENS_12basic_stringIcNS_11char_traitsIcEENS_9allocatorIcEEEET_SC_
0000000102901eda t __ZNKSt3__112regex_traitsIcE9transformIPcEENS_12basic_stringIcNS_11char_traitsIcEENS_9allocatorIcEEEET_SA_
0000000102935ab4 t __ZNKSt3__115basic_stringbufIcNS_11char_traitsIcEENS_9allocatorIcEEE3strEv
                 U __ZNKSt3__120__vector_base_commonILb1EE20__throw_length_errorEv
                 U __ZNKSt3__120__vector_base_commonILb1EE20__throw_out_of_rangeEv
                 U __ZNKSt3__121__basic_string_commonILb1EE20__throw_length_errorEv
                 U __ZNKSt3__123__match_any_but_newlineIcE6__execERNS_7__stateIcEE
00000001028bb56c t __ZNKSt3__16__treeI6AgPathNS_4lessIS1_EENS_9allocatorIS1_EEE14__count_uniqueIS1_EEmRKT_
00000001028b49a2 t __ZNKSt3__16__treeINS_12__value_typeI11AgStringRef10AgJsonNodeEENS_19__map_value_compareIS2_S4_NS_4lessIS2_EELb1EEENS_9allocatorIS4_EEE4findIS2_EENS_21__tree_const_iteratorIS4_PNS_11__tree_nodeIS4_PvEElEERKT_
000000010286818e t __ZNKSt3__16__treeINS_12__value_typeI8AgString9AgPointerI7AgMountEEENS_19__map_value_compareIS2_S6_NS_4lessIS2_EELb1EEENS_9allocatorIS6_EEE14__count_uniqueIS2_EEmRKT_
00000001028681ea t __ZNKSt3__16__treeINS_12__value_typeI8AgString9AgPointerI7AgMountEEENS_19__map_value_compareIS2_S6_NS_4lessIS2_EELb1EEENS_9allocatorIS6_EEE4findIS2_EENS_21__tree_const_iteratorIS6_PNS_11__tree_nodeIS6_PvEElEERKT_
0000000102816192 t __ZNKSt3__16__treeINS_12__value_typeI8AgStringN13GBSaveManager10SaveBufferEEENS_19__map_value_compareIS2_S5_NS_4lessIS2_EELb1EEENS_9allocatorIS5_EEE4findIS2_EENS_21__tree_const_iteratorIS5_PNS_11__tree_nodeIS5_PvEElEERKT_
00000001028ba016 t __ZNKSt3__16__treeINS_12__value_typeI8AgStringjEENS_19__map_value_compareIS2_S3_NS_4lessIS2_EELb1EEENS_9allocatorIS3_EEE4findIS2_EENS_21__tree_const_iteratorIS3_PNS_11__tree_nodeIS3_PvEElEERKT_
00000001028b9fce t __ZNKSt3__16__treeINS_12__value_typeIN8AgLocale14SystemLanguageEjEENS_19__map_value_compareIS3_S4_NS_4lessIS3_EELb1EEENS_9allocatorIS4_EEE4findIS3_EENS_21__tree_const_iteratorIS4_PNS_11__tree_nodeIS4_PvEElEERKT_
0000000102930df0 t __ZNKSt3__16__treeINS_12__value_typeINS_12basic_stringIcNS_11char_traitsIcEENS_9allocatorIcEEEE26AgControllerComponentIndexEENS_19__map_value_compareIS7_S9_NS_4lessIS7_EELb1EEENS5_IS9_EEE13__lower_boundIS7_EENS_21__tree_const_iteratorIS9_PNS_11__tree_nodeIS9_PvEElEERKT_SL_SL_
0000000102930d48 t __ZNKSt3__16__treeINS_12__value_typeINS_12basic_stringIcNS_11char_traitsIcEENS_9allocatorIcEEEE26AgControllerComponentIndexEENS_19__map_value_compareIS7_S9_NS_4lessIS7_EELb1EEENS5_IS9_EEE4findIS7_EENS_21__tree_const_iteratorIS9_PNS_11__tree_nodeIS9_PvEElEERKT_
0000000102930ec4 t __ZNKSt3__16__treeINS_12__value_typeIj9AgPointerI12AgControllerEEENS_19__map_value_compareIjS5_NS_4lessIjEELb1EEENS_9allocatorIS5_EEE4findIjEENS_21__tree_const_iteratorIS5_PNS_11__tree_nodeIS5_PvEElEERKT_
0000000102930fc0 t __ZNKSt3__16__treeINS_12__value_typeIjxEENS_19__map_value_compareIjS2_NS_4lessIjEELb1EEENS_9allocatorIS2_EEE4findIjEENS_21__tree_const_iteratorIS2_PNS_11__tree_nodeIS2_PvEElEERKT_
0000000102888964 t __ZNKSt3__16__treeINS_12__value_typeIx9AgPointerI6AgUserEEENS_19__map_value_compareIxS5_NS_4lessIxEELb1EEENS_9allocatorIS5_EEE4findIxEENS_21__tree_const_iteratorIS5_PNS_11__tree_nodeIS5_PvEElEERKT_
00000001028d36b8 t __ZNKSt3__16__treeINS_12__value_typeIx9AgPointerI9AgProfileEEENS_19__map_value_compareIxS5_NS_4lessIxEELb1EEENS_9allocatorIS5_EEE4findIxEENS_21__tree_const_iteratorIS5_PNS_11__tree_nodeIS5_PvEElEERKT_
0000000102930f0c t __ZNKSt3__16__treeINS_12__value_typeIxjEENS_19__map_value_compareIxS2_NS_4lessIxEELb1EEENS_9allocatorIS2_EEE19__equal_range_multiIxEENS_4pairINS_21__tree_const_iteratorIS2_PNS_11__tree_nodeIS2_PvEElEESH_EERKT_
00000001028d3704 t __ZNKSt3__16__treeINS_12__value_typeIy9AgPointerI9AgProfileEEENS_19__map_value_compareIyS5_NS_4lessIyEELb1EEENS_9allocatorIS5_EEE4findIyEENS_21__tree_const_iteratorIS5_PNS_11__tree_nodeIS5_PvEElEERKT_
                 U __ZNKSt3__16locale4nameEv
                 U __ZNKSt3__16locale9has_facetERNS0_2idE
                 U __ZNKSt3__16locale9use_facetERNS0_2idE
                 U __ZNKSt3__18ios_base6getlocEv
000000010292368a t __ZNSt3__110__list_impI9AgPointerI9AgArchiveENS_9allocatorIS3_EEE5clearEv
00000001027d8bd0 t __ZNSt3__110__list_impIN3gml7GMLPath9NodePointENS_9allocatorIS3_EEE5clearEv
000000010287e52a t __ZNSt3__110__list_impIP18AgPlatformResourceNS_9allocatorIS2_EEE5clearEv
000000010292f5b8 t __ZNSt3__110__list_impIP21AgControllerComponentNS_9allocatorIS2_EEE5clearEv
000000010284d330 t __ZNSt3__110__list_impIP6ObjectNS_9allocatorIS2_EEE5clearEv
00000001028fda3c t __ZNSt3__110shared_ptrINS_13__empty_stateIcEEEC2IS2_EEPT_NS_9enable_ifIXsr14is_convertibleIS6_PS2_EE5valueENS3_5__natEE4typeE
00000001027b1d71 t __ZNSt3__111__sift_downIRNS_4lessIN3gml8GridNodeEEENS_11__wrap_iterIPS3_EEEEvT0_S9_T_NS_15iterator_traitsIS9_E15difference_typeES9_
00000001029008b0 t __ZNSt3__111basic_regexIcNS_12regex_traitsIcEEE11__push_charEc
00000001029047a2 t __ZNSt3__111basic_regexIcNS_12regex_traitsIcEEE11__push_loopEmmPNS_16__owns_one_stateIcEEmmb
00000001028fe01c t __ZNSt3__111basic_regexIcNS_12regex_traitsIcEEE12__parse_atomIPKcEET_S7_S7_
00000001028fd7c0 t __ZNSt3__111basic_regexIcNS_12regex_traitsIcEEE12__parse_grepIPKcEET_S7_S7_
00000001028fdc76 t __ZNSt3__111basic_regexIcNS_12regex_traitsIcEEE12__parse_termIPKcEET_S7_S7_
00000001028fd8ea t __ZNSt3__111basic_regexIcNS_12regex_traitsIcEEE13__parse_egrepIPKcEET_S7_S7_
0000000102905198 t __ZNSt3__111basic_regexIcNS_12regex_traitsIcEEE15__parse_BACKREFIPKcEET_S7_S7_
0000000102900a0e t __ZNSt3__111basic_regexIcNS_12regex_traitsIcEEE15__push_back_refEi
00000001028fd496 t __ZNSt3__111basic_regexIcNS_12regex_traitsIcEEE16__parse_ecma_expIPKcEET_S7_S7_
00000001028fe6fa t __ZNSt3__111basic_regexIcNS_12regex_traitsIcEEE16__push_lookaheadERKS3_bj
000000010290491a t __ZNSt3__111basic_regexIcNS_12regex_traitsIcEEE17__parse_DUP_COUNTIPKcEET_S7_S7_Ri
00000001028fdcf6 t __ZNSt3__111basic_regexIcNS_12regex_traitsIcEEE17__parse_assertionIPKcEET_S7_S7_
0000000102904c8c t __ZNSt3__111basic_regexIcNS_12regex_traitsIcEEE17__parse_simple_REIPKcEET_S7_S7_
00000001029052d8 t __ZNSt3__111basic_regexIcNS_12regex_traitsIcEEE18__parse_ERE_branchIPKcEET_S7_S7_
0000000102903a98 t __ZNSt3__111basic_regexIcNS_12regex_traitsIcEEE18__parse_awk_escapeIPKcEET_S7_S7_PNS_12basic_stringIcNS_11char_traitsIcEENS_9allocatorIcEEEE
0000000102904d02 t __ZNSt3__111basic_regexIcNS_12regex_traitsIcEEE18__parse_nondupl_REIPKcEET_S7_S7_
00000001028fdbc0 t __ZNSt3__111basic_regexIcNS_12regex_traitsIcEEE18__push_alternationEPNS_16__owns_one_stateIcEES6_
00000001029051f8 t __ZNSt3__111basic_regexIcNS_12regex_traitsIcEEE19__parse_QUOTED_CHARIPKcEET_S7_S7_
00000001028ffd8e t __ZNSt3__111basic_regexIcNS_12regex_traitsIcEEE19__parse_atom_escapeIPKcEET_S7_S7_
0000000102905572 t __ZNSt3__111basic_regexIcNS_12regex_traitsIcEEE20__parse_ORD_CHAR_EREIPKcEET_S7_S7_
0000000102903856 t __ZNSt3__111basic_regexIcNS_12regex_traitsIcEEE20__parse_class_escapeIPKcEET_S7_S7_RNS_12basic_stringIcNS_11char_traitsIcEENS_9allocatorIcEEEEPNS_20__bracket_expressionIcS2_EE
00000001028fe684 t __ZNSt3__111basic_regexIcNS_12regex_traitsIcEEE20__push_word_boundaryEb
00000001028fd5b2 t __ZNSt3__111basic_regexIcNS_12regex_traitsIcEEE21__parse_basic_reg_expIPKcEET_S7_S7_
0000000102901096 t __ZNSt3__111basic_regexIcNS_12regex_traitsIcEEE21__start_matching_listEb
000000010290535c t __ZNSt3__111basic_regexIcNS_12regex_traitsIcEEE22__parse_ERE_expressionIPKcEET_S7_S7_
0000000102904e32 t __ZNSt3__111basic_regexIcNS_12regex_traitsIcEEE22__parse_RE_dupl_symbolIPKcEET_S7_S7_PNS_16__owns_one_stateIcEEjj
00000001029001ba t __ZNSt3__111basic_regexIcNS_12regex_traitsIcEEE22__parse_decimal_escapeIPKcEET_S7_S7_
00000001028fe26c t __ZNSt3__111basic_regexIcNS_12regex_traitsIcEEE23__parse_ERE_dupl_symbolIPKcEET_S7_S7_PNS_16__owns_one_stateIcEEjj
00000001029055d8 t __ZNSt3__111basic_regexIcNS_12regex_traitsIcEEE23__parse_QUOTED_CHAR_EREIPKcEET_S7_S7_
00000001029035f6 t __ZNSt3__111basic_regexIcNS_12regex_traitsIcEEE23__parse_character_classIPKcEET_S7_S7_PNS_20__bracket_expressionIcS2_EE
00000001029024e2 t __ZNSt3__111basic_regexIcNS_12regex_traitsIcEEE23__parse_expression_termIPKcEET_S7_S7_PNS_20__bracket_expressionIcS2_EE
000000010290044a t __ZNSt3__111basic_regexIcNS_12regex_traitsIcEEE24__parse_character_escapeIPKcEET_S7_S7_PNS_12basic_stringIcNS_11char_traitsIcEENS_9allocatorIcEEEE
00000001029036e4 t __ZNSt3__111basic_regexIcNS_12regex_traitsIcEEE24__parse_collating_symbolIPKcEET_S7_S7_RNS_12basic_stringIcNS_11char_traitsIcEENS_9allocatorIcEEEE
00000001028fd6d4 t __ZNSt3__111basic_regexIcNS_12regex_traitsIcEEE24__parse_extended_reg_expIPKcEET_S7_S7_
0000000102903226 t __ZNSt3__111basic_regexIcNS_12regex_traitsIcEEE25__parse_equivalence_classIPKcEET_S7_S7_PNS_20__bracket_expressionIcS2_EE
00000001028ffdfe t __ZNSt3__111basic_regexIcNS_12regex_traitsIcEEE26__parse_bracket_expressionIPKcEET_S7_S7_
000000010290028a t __ZNSt3__111basic_regexIcNS_12regex_traitsIcEEE30__parse_character_class_escapeIPKcEET_S7_S7_
0000000102900112 t __ZNSt3__111basic_regexIcNS_12regex_traitsIcEEE31__push_end_marked_subexpressionEj
00000001029050be t __ZNSt3__111basic_regexIcNS_12regex_traitsIcEEE32__parse_one_char_or_coll_elem_REIPKcEET_S7_S7_
00000001029054d8 t __ZNSt3__111basic_regexIcNS_12regex_traitsIcEEE33__parse_one_char_or_coll_elem_EREIPKcEET_S7_S7_
00000001029000bc t __ZNSt3__111basic_regexIcNS_12regex_traitsIcEEE33__push_begin_marked_subexpressionEv
00000001028fd2aa t __ZNSt3__111basic_regexIcNS_12regex_traitsIcEEE7__parseIPKcEET_S7_S7_
                 U __ZNSt3__111regex_errorC1ENS_15regex_constants10error_typeE
                 U __ZNSt3__111regex_errorD1Ev
00000001027de844 t __ZNSt3__112__deque_baseI11AgMatrix4x4NS_9allocatorIS1_EEE5clearEv
00000001027de802 t __ZNSt3__112__deque_baseI11AgMatrix4x4NS_9allocatorIS1_EEED2Ev
0000000102851cf8 t __ZNSt3__112__deque_baseI9AgPointerI11AgTexture2dENS_9allocatorIS3_EEE5clearEv
00000001027de91c t __ZNSt3__112__deque_baseI9AgPointerI11AgTexture2dENS_9allocatorIS3_EEED2Ev
000000010287e372 t __ZNSt3__112__deque_baseI9AgPointerIN12AgRenderList15CaptureCallbackEENS_9allocatorIS4_EEE5clearEv
000000010287e330 t __ZNSt3__112__deque_baseI9AgPointerIN12AgRenderList15CaptureCallbackEENS_9allocatorIS4_EEED2Ev
00000001027de72e t __ZNSt3__112__deque_baseIN18RenderSurfaceStack18ViewportStackEntryENS_9allocatorIS2_EEE5clearEv
00000001027de6ec t __ZNSt3__112__deque_baseIN18RenderSurfaceStack18ViewportStackEntryENS_9allocatorIS2_EEED2Ev
00000001029200fe t __ZNSt3__112__deque_baseIN6TagLib7MDMODELENS_9allocatorIS2_EEE5clearEv
00000001029200bc t __ZNSt3__112__deque_baseIN6TagLib7MDMODELENS_9allocatorIS2_EEED2Ev
000000010290718a t __ZNSt3__112__deque_baseINS_7__stateIcEENS_9allocatorIS2_EEE5clearEv
000000010290780e t __ZNSt3__112__deque_baseINS_7__stateIcEENS_9allocatorIS2_EEED2Ev
000000010292021e t __ZNSt3__112__deque_baseIPKhNS_9allocatorIS2_EEE5clearEv
00000001029201dc t __ZNSt3__112__deque_baseIPKhNS_9allocatorIS2_EEED2Ev
0000000102842caa t __ZNSt3__112__deque_baseIfNS_9allocatorIfEEE5clearEv
0000000102842c68 t __ZNSt3__112__deque_baseIfNS_9allocatorIfEEED2Ev
00000001028033a2 t __ZNSt3__112__deque_baseIiNS_9allocatorIiEEE5clearEv
0000000102803360 t __ZNSt3__112__deque_baseIiNS_9allocatorIiEEED2Ev
000000010292033e t __ZNSt3__112__deque_baseItNS_9allocatorItEEE5clearEv
00000001029202fc t __ZNSt3__112__deque_baseItNS_9allocatorItEEED2Ev
0000000102892db0 t __ZNSt3__112__hash_tableINS_17__hash_value_typeI6AgHash14AgResourceTypeEENS_22__unordered_map_hasherIS2_S4_NS_4hashIS2_EELb1EEENS_21__unordered_map_equalIS2_S4_NS_8equal_toIS2_EELb1EEENS_9allocatorIS4_EEE20__node_insert_uniqueEPNS_11__hash_nodeIS4_PvEE
0000000102893980 t __ZNSt3__112__hash_tableINS_17__hash_value_typeI6AgHash14AgResourceTypeEENS_22__unordered_map_hasherIS2_S4_NS_4hashIS2_EELb1EEENS_21__unordered_map_equalIS2_S4_NS_8equal_toIS2_EELb1EEENS_9allocatorIS4_EEE4findIS2_EENS_15__hash_iteratorIPNS_11__hash_nodeIS4_PvEEEERKT_
0000000102892f7e t __ZNSt3__112__hash_tableINS_17__hash_value_typeI6AgHash14AgResourceTypeEENS_22__unordered_map_hasherIS2_S4_NS_4hashIS2_EELb1EEENS_21__unordered_map_equalIS2_S4_NS_8equal_toIS2_EELb1EEENS_9allocatorIS4_EEE6rehashEm
0000000102893084 t __ZNSt3__112__hash_tableINS_17__hash_value_typeI6AgHash14AgResourceTypeEENS_22__unordered_map_hasherIS2_S4_NS_4hashIS2_EELb1EEENS_21__unordered_map_equalIS2_S4_NS_8equal_toIS2_EELb1EEENS_9allocatorIS4_EEE8__rehashEm
0000000102891ef6 t __ZNSt3__112__hash_tableINS_17__hash_value_typeI6AgHash14AgResourceTypeEENS_22__unordered_map_hasherIS2_S4_NS_4hashIS2_EELb1EEENS_21__unordered_map_equalIS2_S4_NS_8equal_toIS2_EELb1EEENS_9allocatorIS4_EEED2Ev
                 U __ZNSt3__112__next_primeEm
                 U __ZNSt3__112__rs_defaultD1Ev
                 U __ZNSt3__112__rs_defaultclEv
                 U __ZNSt3__112basic_stringIcNS_11char_traitsIcEENS_9allocatorIcEEE6__initEPKcm
                 U __ZNSt3__112basic_stringIcNS_11char_traitsIcEENS_9allocatorIcEEE6__initEPKcmm
                 U __ZNSt3__112basic_stringIcNS_11char_traitsIcEENS_9allocatorIcEEE6__initEmc
0000000102907dc6 t __ZNSt3__112basic_stringIcNS_11char_traitsIcEENS_9allocatorIcEEE6__initINS_11__wrap_iterIPKcEEEENS_9enable_ifIXsr21__is_forward_iteratorIT_EE5valueEvE4typeESC_SC_
0000000102907e54 t __ZNSt3__112basic_stringIcNS_11char_traitsIcEENS_9allocatorIcEEE6__initINS_11__wrap_iterIPcEEEENS_9enable_ifIXsr21__is_forward_iteratorIT_EE5valueEvE4typeESB_SB_
0000000102903e7e t __ZNSt3__112basic_stringIcNS_11char_traitsIcEENS_9allocatorIcEEE6__initIPKcEENS_9enable_ifIXsr21__is_forward_iteratorIT_EE5valueEvE4typeESA_SA_
0000000102902168 t __ZNSt3__112basic_stringIcNS_11char_traitsIcEENS_9allocatorIcEEE6__initIPcEENS_9enable_ifIXsr21__is_forward_iteratorIT_EE5valueEvE4typeES9_S9_
                 U __ZNSt3__112basic_stringIcNS_11char_traitsIcEENS_9allocatorIcEEE6appendEPKc
                 U __ZNSt3__112basic_stringIcNS_11char_traitsIcEENS_9allocatorIcEEE6appendEPKcm
                 U __ZNSt3__112basic_stringIcNS_11char_traitsIcEENS_9allocatorIcEEE6assignEPKc
                 U __ZNSt3__112basic_stringIcNS_11char_traitsIcEENS_9allocatorIcEEE6insertEmPKc
                 U __ZNSt3__112basic_stringIcNS_11char_traitsIcEENS_9allocatorIcEEE6resizeEmc
                 U __ZNSt3__112basic_stringIcNS_11char_traitsIcEENS_9allocatorIcEEE7replaceEmmPKcm
                 U __ZNSt3__112basic_stringIcNS_11char_traitsIcEENS_9allocatorIcEEE7reserveEm
                 U __ZNSt3__112basic_stringIcNS_11char_traitsIcEENS_9allocatorIcEEE9push_backEc
                 U __ZNSt3__112basic_stringIcNS_11char_traitsIcEENS_9allocatorIcEEEC1ERKS5_
                 U __ZNSt3__112basic_stringIcNS_11char_traitsIcEENS_9allocatorIcEEEC1ERKS5_mmRKS4_
                 U __ZNSt3__112basic_stringIcNS_11char_traitsIcEENS_9allocatorIcEEED1Ev
                 U __ZNSt3__112basic_stringIcNS_11char_traitsIcEENS_9allocatorIcEEEaSERKS5_
                 U __ZNSt3__112basic_stringIcNS_11char_traitsIcEENS_9allocatorIcEEEaSEc
                 U __ZNSt3__112basic_stringIwNS_11char_traitsIwEENS_9allocatorIwEEE6__initEPKwm
                 U __ZNSt3__112basic_stringIwNS_11char_traitsIwEENS_9allocatorIwEEE6appendEmw
                 U __ZNSt3__112basic_stringIwNS_11char_traitsIwEENS_9allocatorIwEEE7reserveEm
                 U __ZNSt3__112basic_stringIwNS_11char_traitsIwEENS_9allocatorIwEEE9push_backEw
                 U __ZNSt3__112basic_stringIwNS_11char_traitsIwEENS_9allocatorIwEEED1Ev
                 U __ZNSt3__112basic_stringIwNS_11char_traitsIwEENS_9allocatorIwEEEaSERKS5_
00000001028fd448 t __ZNSt3__112regex_traitsIcEC2Ev
000000010293038f t __ZNSt3__113__fill_n_trueINS_6vectorIbNS_9allocatorIbEEEEEEvNS_14__bit_iteratorIT_Lb0EXLi0EEEENS6_9size_typeE
0000000102844520 t __ZNSt3__113__tree_removeIPNS_16__tree_node_baseIPvEEEEvT_S5_
0000000102875824 t __ZNSt3__113__vector_baseI10AgDelegateIFvRK9AgPointerI15AgRenderContextEyEENS_9allocatorIS8_EEED2Ev
0000000102885fd8 t __ZNSt3__113__vector_baseI11AgDelegate1IRK12AgMountEventvENS_9allocatorIS5_EEED2Ev
0000000102885f8c t __ZNSt3__113__vector_baseI11AgDelegate1IRK14AgUnmountEventvENS_9allocatorIS5_EEED2Ev
00000001028e6e50 t __ZNSt3__113__vector_baseI11AgDelegate1IRK15AgResumingEventvENS_9allocatorIS5_EEED2Ev
00000001028a85d0 t __ZNSt3__113__vector_baseI11AgDelegate1IRK15AgShutdownEventvENS_9allocatorIS5_EEED2Ev
00000001028a8530 t __ZNSt3__113__vector_baseI11AgDelegate1IRK16AgActivatedEventvENS_9allocatorIS5_EEED2Ev
000000010288731e t __ZNSt3__113__vector_baseI11AgDelegate1IRK16AgUserAddedEventvENS_9allocatorIS5_EEED2Ev
0000000102885f40 t __ZNSt3__113__vector_baseI11AgDelegate1IRK17AgMountErrorEventvENS_9allocatorIS5_EEED2Ev
00000001028a8580 t __ZNSt3__113__vector_baseI11AgDelegate1IRK17AgSuspendingEventvENS_9allocatorIS5_EEED2Ev
00000001028e6ea0 t __ZNSt3__113__vector_baseI11AgDelegate1IRK18AgDeactivatedEventvENS_9allocatorIS5_EEED2Ev
000000010289a8e6 t __ZNSt3__113__vector_baseI11AgDelegate1IRK18AgPlayerAddedEventvENS_9allocatorIS5_EEED2Ev
000000010289e5fe t __ZNSt3__113__vector_baseI11AgDelegate1IRK18AgPrepareDumpEventvENS_9allocatorIS5_EEED2Ev
0000000102887366 t __ZNSt3__113__vector_baseI11AgDelegate1IRK18AgUserRemovedEventvENS_9allocatorIS5_EEED2Ev
00000001028873ae t __ZNSt3__113__vector_baseI11AgDelegate1IRK18AgUserUpdatedEventvENS_9allocatorIS5_EEED2Ev
0000000102867ace t __ZNSt3__113__vector_baseI11AgDelegate1IRK20AgMountWriteEndEventvENS_9allocatorIS5_EEED2Ev
00000001028bc09e t __ZNSt3__113__vector_baseI11AgDelegate1IRK20AgNetworkOnlineEventvENS_9allocatorIS5_EEED2Ev
000000010289a89e t __ZNSt3__113__vector_baseI11AgDelegate1IRK20AgPlayerRemovedEventvENS_9allocatorIS5_EEED2Ev
000000010289a9ec t __ZNSt3__113__vector_baseI11AgDelegate1IRK20AgPlayerUpdatedEventvENS_9allocatorIS5_EEED2Ev
00000001028e6e00 t __ZNSt3__113__vector_baseI11AgDelegate1IRK21AgDisplayChangedEventvENS_9allocatorIS5_EEED2Ev
00000001028bc0e6 t __ZNSt3__113__vector_baseI11AgDelegate1IRK21AgNetworkOfflineEventvENS_9allocatorIS5_EEED2Ev
000000010293d628 t __ZNSt3__113__vector_baseI11AgDelegate1IRK22AgControllerAddedEventvENS_9allocatorIS5_EEED2Ev
0000000102867a86 t __ZNSt3__113__vector_baseI11AgDelegate1IRK22AgMountWriteBeginEventvENS_9allocatorIS5_EEED2Ev
000000010293d5dc t __ZNSt3__113__vector_baseI11AgDelegate1IRK24AgControllerRemovedEventvENS_9allocatorIS5_EEED2Ev
000000010293d590 t __ZNSt3__113__vector_baseI11AgDelegate1IRK31AgControllerPairingChangedEventvENS_9allocatorIS5_EEED2Ev
00000001028dd40e t __ZNSt3__113__vector_baseI11AgDelegate1IRK9AgPointerI9AgSessionEvENS_9allocatorIS7_EEED2Ev
0000000102867e4c t __ZNSt3__113__vector_baseI12AgMountEventNS_9allocatorIS1_EEED2Ev
000000010286c83e t __ZNSt3__113__vector_baseI13AgDepthSpriteNS_9allocatorIS1_EEED2Ev
00000001028abffe t __ZNSt3__113__vector_baseI13AgDisplayModeNS_9allocatorIS1_EEED2Ev
0000000102842bd4 t __ZNSt3__113__vector_baseI13BatchedSpriteNS_9allocatorIS1_EEED2Ev
0000000102867d68 t __ZNSt3__113__vector_baseI14AgUnmountEventNS_9allocatorIS1_EEED2Ev
00000001028874da t __ZNSt3__113__vector_baseI16AgUserAddedEventNS_9allocatorIS1_EEED2Ev
0000000102867bfa t __ZNSt3__113__vector_baseI17AgMountErrorEventNS_9allocatorIS1_EEED2Ev
00000001028873f6 t __ZNSt3__113__vector_baseI18AgUserRemovedEventNS_9allocatorIS1_EEED2Ev
0000000102887688 t __ZNSt3__113__vector_baseI18AgUserUpdatedEventNS_9allocatorIS1_EEED2Ev
0000000102885e54 t __ZNSt3__113__vector_baseI20AgMountWriteEndEventNS_9allocatorIS1_EEED2Ev
000000010292f744 t __ZNSt3__113__vector_baseI22AgControllerAddedEventNS_9allocatorIS1_EEED2Ev
0000000102867b16 t __ZNSt3__113__vector_baseI22AgMountWriteBeginEventNS_9allocatorIS1_EEED2Ev
000000010292f660 t __ZNSt3__113__vector_baseI24AgControllerRemovedEventNS_9allocatorIS1_EEED2Ev
000000010292f61a t __ZNSt3__113__vector_baseI31AgControllerPairingChangedEventNS_9allocatorIS1_EEED2Ev
0000000102875a34 t __ZNSt3__113__vector_baseI7CommandNS_9allocatorIS1_EEED2Ev
00000001028b98e2 t __ZNSt3__113__vector_baseI9AgPointerI10AgLanguageENS_9allocatorIS3_EEED2Ev
0000000102875950 t __ZNSt3__113__vector_baseI9AgPointerI10AgResourceENS_9allocatorIS3_EEED2Ev
00000001028d8f9a t __ZNSt3__113__vector_baseI9AgPointerI12AgRenderListENS_9allocatorIS3_EEED2Ev
00000001028d0d44 t __ZNSt3__113__vector_baseI9AgPointerI13AgAudioEffectENS_9allocatorIS3_EEED2Ev
0000000102875656 t __ZNSt3__113__vector_baseI9AgPointerI17AgConstantsPacketENS_9allocatorIS3_EEED2Ev
000000010289ad3a t __ZNSt3__113__vector_baseI9AgPointerI6AgUserENS_9allocatorIS3_EEED2Ev
00000001027c05dc t __ZNSt3__113__vector_baseI9AgPointerI6ShaderENS_9allocatorIS3_EEED2Ev
0000000102870ed6 t __ZNSt3__113__vector_baseI9AgPointerI8AgDialogENS_9allocatorIS3_EEED2Ev
000000010289a92e t __ZNSt3__113__vector_baseI9AgPointerI8AgPlayerENS_9allocatorIS3_EEED2Ev
000000010287586c t __ZNSt3__113__vector_baseI9AgPointerI8AgStreamENS_9allocatorIS3_EEED2Ev
000000010286dbc0 t __ZNSt3__113__vector_baseI9AgPointerI8AgThreadENS_9allocatorIS3_EEED2Ev
0000000102916e90 t __ZNSt3__113__vector_baseI9AgPointerI9AgSessionENS_9allocatorIS3_EEED2Ev
0000000102875740 t __ZNSt3__113__vector_baseI9AgPointerIN12AgRenderList15CaptureCallbackEENS_9allocatorIS4_EEED2Ev
0000000102918d10 t __ZNSt3__113__vector_baseI9AgVector2NS_9allocatorIS1_EEED2Ev
0000000102875620 t __ZNSt3__113__vector_baseI9AgVector4NS_9allocatorIS1_EEED2Ev
0000000102915338 t __ZNSt3__113__vector_baseIN11AgDirectory14DirectoryEntryENS_9allocatorIS2_EEED2Ev
00000001027fb472 t __ZNSt3__113__vector_baseIN12SoundManager10MusicTrackENS_9allocatorIS2_EEED2Ev
000000010280fa0e t __ZNSt3__113__vector_baseIN13ObjectManager13OverlaySpriteENS_9allocatorIS2_EEED2Ev
0000000102846424 t __ZNSt3__113__vector_baseIN16MemoryStreamPoolI11AgAllocatorIL16AgAllocatorTypes1EEE21MemoryStreamPoolEntryENS_9allocatorIS6_EEED2Ev
0000000102842fa8 t __ZNSt3__113__vector_baseIN16MemoryStreamPoolI18AgForwardAllocatorI16AgFrameAllocatorI11AgAllocatorIL16AgAllocatorTypes1EEEEE21MemoryStreamPoolEntryENS_9allocatorISA_EEED2Ev
00000001027f5222 t __ZNSt3__113__vector_baseIN16StringCompositor4LineENS_9allocatorIS2_EEED2Ev
00000001027f51ec t __ZNSt3__113__vector_baseIN16StringCompositor5GlyphENS_9allocatorIS2_EEED2Ev
00000001027de52e t __ZNSt3__113__vector_baseIN17GameBakerGraphics11DisplayModeENS_9allocatorIS2_EEED2Ev
000000010292a1fa t __ZNSt3__113__vector_baseIN19AgVertexDeclaration4ItemENS_9allocatorIS2_EEED2Ev
000000010291182e t __ZNSt3__113__vector_baseIN20AgTextureAtlasReader11SpriteFrameENS_9allocatorIS2_EEED2Ev
00000001029117ba t __ZNSt3__113__vector_baseIN20AgTextureAtlasReader6SpriteENS_9allocatorIS2_EEED2Ev
00000001028d0e28 t __ZNSt3__113__vector_baseIN22AgAudioChannelBaseData7CommandENS_9allocatorIS2_EEED2Ev
00000001027d8c2e t __ZNSt3__113__vector_baseIN3gml7GMLPath9NodePointENS_9allocatorIS3_EEED2Ev
00000001028201de t __ZNSt3__113__vector_baseIN3gml7PGMLVarENS_9allocatorIS2_EEED2Ev
00000001027b1b38 t __ZNSt3__113__vector_baseIN3gml8GridNodeENS_9allocatorIS2_EEED2Ev
000000010284899e t __ZNSt3__113__vector_baseIN5Sound13SoundInstanceENS_9allocatorIS2_EEED2Ev
000000010292382e t __ZNSt3__113__vector_baseIN9AgArchive14DirectoryEntryENS_9allocatorIS2_EEED2Ev
0000000102901dfe t __ZNSt3__113__vector_baseINS_12basic_stringIcNS_11char_traitsIcEENS_9allocatorIcEEEENS4_IS6_EEED2Ev
0000000102901e7a t __ZNSt3__113__vector_baseINS_4pairINS_12basic_stringIcNS_11char_traitsIcEENS_9allocatorIcEEEES7_EENS5_IS8_EEED2Ev
0000000102901e44 t __ZNSt3__113__vector_baseINS_4pairIccEENS_9allocatorIS2_EEED2Ev
00000001028ff80c t __ZNSt3__113__vector_baseINS_4pairImPKcEENS_9allocatorIS4_EEED2Ev
00000001028ffd2a t __ZNSt3__113__vector_baseINS_7__stateIcEENS_9allocatorIS2_EEED2Ev
00000001028fd262 t __ZNSt3__113__vector_baseINS_9sub_matchINS_11__wrap_iterIPKcEEEENS_9allocatorIS6_EEED2Ev
00000001028ff1b4 t __ZNSt3__113__vector_baseINS_9sub_matchIPKcEENS_9allocatorIS4_EEED2Ev
00000001028be818 t __ZNSt3__113__vector_baseIP14AgAudioChannelNS_9allocatorIS2_EEED2Ev
0000000102892908 t __ZNSt3__113__vector_baseIP18AgPlatformResourceNS_9allocatorIS2_EEED2Ev
000000010280fa56 t __ZNSt3__113__vector_baseIP6ObjectNS_9allocatorIS2_EEED2Ev
0000000102842dbe t __ZNSt3__113__vector_baseIP6SpriteNS_9allocatorIS2_EEED2Ev
0000000102801d5c t __ZNSt3__113__vector_baseIP9ITickableNS_9allocatorIS2_EEED2Ev
00000001027d6f74 t __ZNSt3__113__vector_baseIPKcNS_9allocatorIS2_EEED2Ev
00000001028034ec t __ZNSt3__113__vector_baseIPN3gml10GMLSurfaceENS_9allocatorIS3_EEED2Ev
00000001027e2d2e t __ZNSt3__113__vector_baseIPN3gml10GMLTextureENS_9allocatorIS3_EEED2Ev
00000001028034b6 t __ZNSt3__113__vector_baseIPN3gml13GMLBackgroundENS_9allocatorIS3_EEED2Ev
0000000102807e6c t __ZNSt3__113__vector_baseIPN3gml16GMLAlarmInstanceENS_9allocatorIS3_EEED2Ev
00000001027b2c20 t __ZNSt3__113__vector_baseIPN3gml17GMLObjectInstanceENS_9allocatorIS3_EEED2Ev
000000010280358e t __ZNSt3__113__vector_baseIPN3gml7GMLFileENS_9allocatorIS3_EEED2Ev
0000000102803630 t __ZNSt3__113__vector_baseIPN3gml7GMLFontENS_9allocatorIS3_EEED2Ev
0000000102803522 t __ZNSt3__113__vector_baseIPN3gml7GMLGridENS_9allocatorIS3_EEED2Ev
0000000102803480 t __ZNSt3__113__vector_baseIPN3gml7GMLPathENS_9allocatorIS3_EEED2Ev
00000001028035c4 t __ZNSt3__113__vector_baseIPN3gml7GMLRoomENS_9allocatorIS3_EEED2Ev
00000001028035fa t __ZNSt3__113__vector_baseIPN3gml8GMLSoundENS_9allocatorIS3_EEED2Ev
0000000102803558 t __ZNSt3__113__vector_baseIPN3gml9GMLObjectENS_9allocatorIS3_EEED2Ev
0000000102803666 t __ZNSt3__113__vector_baseIPN3gml9GMLSpriteENS_9allocatorIS3_EEED2Ev
00000001027b2be0 t __ZNSt3__113__vector_baseIPN4ListIPN3gml17GMLObjectInstanceEE13iterator_dataENS_9allocatorIS7_EEED2Ev
000000010280739a t __ZNSt3__113__vector_baseIPN7TileSet4TileENS_9allocatorIS3_EEED2Ev
000000010280b700 t __ZNSt3__113__vector_baseIPN8TileGrid8GridCellENS_9allocatorIS3_EEED2Ev
000000010280b686 t __ZNSt3__113__vector_baseIPN8TileGrid8GridTileENS_9allocatorIS3_EEED2Ev
00000001027de576 t __ZNSt3__113__vector_baseIPhNS_9allocatorIS1_EEED2Ev
0000000102917f6c t __ZNSt3__113__vector_baseIfNS_9allocatorIfEEED2Ev
00000001028463ee t __ZNSt3__113__vector_baseIyNS_9allocatorIyEEED2Ev
00000001028fb8b6 t __ZNSt3__113basic_filebufIcNS_11char_traitsIcEEE11__read_modeEv
00000001028fb918 t __ZNSt3__113basic_filebufIcNS_11char_traitsIcEEE12__write_modeEv
00000001028fbace t __ZNSt3__113basic_filebufIcNS_11char_traitsIcEEE4openEPKcj
00000001028fac90 t __ZNSt3__113basic_filebufIcNS_11char_traitsIcEEE5closeEv
00000001028fbc64 t __ZNSt3__113basic_filebufIcNS_11char_traitsIcEEEC2Ev
00000001028fac16 t __ZNSt3__113basic_filebufIcNS_11char_traitsIcEEED2Ev
                 U __ZNSt3__113basic_istreamIcNS_11char_traitsIcEEE4readEPcl
                 U __ZNSt3__113basic_istreamIcNS_11char_traitsIcEEE5seekgExNS_8ios_base7seekdirE
                 U __ZNSt3__113basic_istreamIcNS_11char_traitsIcEEE5tellgEv
                 U __ZNSt3__113basic_istreamIcNS_11char_traitsIcEEED0Ev
                 U __ZNSt3__113basic_istreamIcNS_11char_traitsIcEEED1Ev
                 U __ZNSt3__113basic_istreamIcNS_11char_traitsIcEEED2Ev
                 U __ZNSt3__113basic_ostreamIcNS_11char_traitsIcEEE5writeEPKcl
                 U __ZNSt3__113basic_ostreamIcNS_11char_traitsIcEEE6sentryC1ERS3_
                 U __ZNSt3__113basic_ostreamIcNS_11char_traitsIcEEE6sentryD1Ev
                 U __ZNSt3__113basic_ostreamIcNS_11char_traitsIcEEED0Ev
                 U __ZNSt3__113basic_ostreamIcNS_11char_traitsIcEEED1Ev
                 U __ZNSt3__113basic_ostreamIcNS_11char_traitsIcEEED2Ev
                 U __ZNSt3__113basic_ostreamIcNS_11char_traitsIcEEElsEi
00000001028feca2 t __ZNSt3__113match_resultsIPKcNS_9allocatorINS_9sub_matchIS2_EEEEE6__initEjS2_S2_b
0000000102892bcc t __ZNSt3__113unordered_mapI6AgHash14AgResourceTypeNS_4hashIS1_EENS_8equal_toIS1_EENS_9allocatorINS_4pairIKS1_S2_EEEEEixEOS1_
00000001029300c3 t __ZNSt3__114__copy_alignedINS_6vectorIbNS_9allocatorIbEEEELb0EEENS_14__bit_iteratorIT_Lb0EXLi0EEEENS5_IS6_XT0_EXLi0EEEES8_S7_
000000010293023d t __ZNSt3__114__copy_alignedINS_6vectorIbNS_9allocatorIbEEEELb1EEENS_14__bit_iteratorIT_Lb0EXLi0EEEENS5_IS6_XT0_EXLi0EEEES8_S7_
0000000102930441 t __ZNSt3__114__fill_n_falseINS_6vectorIbNS_9allocatorIbEEEEEEvNS_14__bit_iteratorIT_Lb0EXLi0EEEENS6_9size_typeE
000000010287693a t __ZNSt3__114__split_bufferI10AgDelegateIFvRK9AgPointerI15AgRenderContextEyEERNS_9allocatorIS8_EEED2Ev
00000001028db7f4 t __ZNSt3__114__split_bufferI10AgJsonNodeRNS_9allocatorIS1_EEED2Ev
0000000102887940 t __ZNSt3__114__split_bufferI11AgDelegate1IRK15AgResumingEventvERNS_9allocatorIS5_EEED2Ev
00000001029189ec t __ZNSt3__114__split_bufferI11AgDelegate1IRK15AgShutdownEventvERNS_9allocatorIS5_EEED2Ev
000000010289b07e t __ZNSt3__114__split_bufferI11AgDelegate1IRK16AgUserAddedEventvERNS_9allocatorIS5_EEED2Ev
0000000102869a3c t __ZNSt3__114__split_bufferI11AgDelegate1IRK17AgMountErrorEventvERNS_9allocatorIS5_EEED2Ev
000000010289b31e t __ZNSt3__114__split_bufferI11AgDelegate1IRK18AgUserRemovedEventvERNS_9allocatorIS5_EEED2Ev
000000010283ae92 t __ZNSt3__114__split_bufferI11AgDelegate1IRK20AgMountWriteEndEventvERNS_9allocatorIS5_EEED2Ev
00000001027df054 t __ZNSt3__114__split_bufferI11AgDelegate1IRK21AgDisplayChangedEventvERNS_9allocatorIS5_EEED2Ev
000000010283abe6 t __ZNSt3__114__split_bufferI11AgDelegate1IRK22AgMountWriteBeginEventvERNS_9allocatorIS5_EEED2Ev
0000000102868bcc t __ZNSt3__114__split_bufferI12AgMountEventRNS_9allocatorIS1_EEED2Ev
000000010286ca12 t __ZNSt3__114__split_bufferI13AgDepthSpriteRNS_9allocatorIS1_EEED2Ev
000000010293deaa t __ZNSt3__114__split_bufferI13AgDisplayModeRNS_9allocatorIS1_EEED2Ev
0000000102844174 t __ZNSt3__114__split_bufferI13BatchedSpriteRNS_9allocatorIS1_EEED2Ev
0000000102868ece t __ZNSt3__114__split_bufferI14AgUnmountEventRNS_9allocatorIS1_EEED2Ev
0000000102887f4e t __ZNSt3__114__split_bufferI16AgUserAddedEventRNS_9allocatorIS1_EEED2Ev
00000001028b7a3a t __ZNSt3__114__split_bufferI17AgMountErrorEventRNS_9allocatorIS1_EEED2Ev
0000000102888480 t __ZNSt3__114__split_bufferI18AgUserRemovedEventRNS_9allocatorIS1_EEED2Ev
000000010288889a t __ZNSt3__114__split_bufferI18AgUserUpdatedEventRNS_9allocatorIS1_EEED2Ev
0000000102869442 t __ZNSt3__114__split_bufferI20AgMountWriteEndEventRNS_9allocatorIS1_EEED2Ev
0000000102931a70 t __ZNSt3__114__split_bufferI22AgControllerAddedEventRNS_9allocatorIS1_EEED2Ev
00000001028688ca t __ZNSt3__114__split_bufferI22AgMountWriteBeginEventRNS_9allocatorIS1_EEED2Ev
00000001029320ca t __ZNSt3__114__split_bufferI24AgControllerRemovedEventRNS_9allocatorIS1_EEED2Ev
00000001029328b0 t __ZNSt3__114__split_bufferI31AgControllerPairingChangedEventRNS_9allocatorIS1_EEED2Ev
000000010287612a t __ZNSt3__114__split_bufferI7CommandRNS_9allocatorIS1_EEED2Ev
00000001028b9d36 t __ZNSt3__114__split_bufferI9AgPointerI10AgLanguageERNS_9allocatorIS3_EEED2Ev
00000001028763aa t __ZNSt3__114__split_bufferI9AgPointerI10AgResourceERNS_9allocatorIS3_EEED2Ev
000000010289ac6c t __ZNSt3__114__split_bufferI9AgPointerI12AgControllerERNS_9allocatorIS3_EEED2Ev
00000001028d92c6 t __ZNSt3__114__split_bufferI9AgPointerI12AgRenderListERNS_9allocatorIS3_EEED2Ev
00000001028d10a2 t __ZNSt3__114__split_bufferI9AgPointerI13AgAudioEffectERNS_9allocatorIS3_EEED2Ev
0000000102876d1e t __ZNSt3__114__split_bufferI9AgPointerI17AgConstantsPacketERNS_9allocatorIS3_EEED2Ev
0000000102888be8 t __ZNSt3__114__split_bufferI9AgPointerI6AgUserERNS_9allocatorIS3_EEED2Ev
00000001027c08e4 t __ZNSt3__114__split_bufferI9AgPointerI6ShaderERNS_9allocatorIS3_EEED2Ev
0000000102871c0a t __ZNSt3__114__split_bufferI9AgPointerI8AgDialogERNS_9allocatorIS3_EEED2Ev
000000010289b856 t __ZNSt3__114__split_bufferI9AgPointerI8AgPlayerERNS_9allocatorIS3_EEED2Ev
00000001028766ac t __ZNSt3__114__split_bufferI9AgPointerI8AgStreamERNS_9allocatorIS3_EEED2Ev
000000010286e002 t __ZNSt3__114__split_bufferI9AgPointerI8AgThreadERNS_9allocatorIS3_EEED2Ev
0000000102937fa2 t __ZNSt3__114__split_bufferI9AgPointerI9AgSessionERNS_9allocatorIS3_EEED2Ev
0000000102875eea t __ZNSt3__114__split_bufferI9AgPointerIN12AgRenderList15CaptureCallbackEERNS_9allocatorIS4_EEED2Ev
0000000102918f6c t __ZNSt3__114__split_bufferI9AgVector2RNS_9allocatorIS1_EEED2Ev
0000000102876ab0 t __ZNSt3__114__split_bufferI9AgVector4RNS_9allocatorIS1_EEED2Ev
000000010291555a t __ZNSt3__114__split_bufferIN11AgDirectory14DirectoryEntryERNS_9allocatorIS2_EEED2Ev
00000001027fbcc6 t __ZNSt3__114__split_bufferIN12SoundManager10MusicTrackERNS_9allocatorIS2_EEED2Ev
000000010281048a t __ZNSt3__114__split_bufferIN13ObjectManager13OverlaySpriteERNS_9allocatorIS2_EEED2Ev
0000000102846cd8 t __ZNSt3__114__split_bufferIN16MemoryStreamPoolI11AgAllocatorIL16AgAllocatorTypes1EEE21MemoryStreamPoolEntryERNS_9allocatorIS6_EEED2Ev
0000000102844af0 t __ZNSt3__114__split_bufferIN16MemoryStreamPoolI18AgForwardAllocatorI16AgFrameAllocatorI11AgAllocatorIL16AgAllocatorTypes1EEEEE21MemoryStreamPoolEntryERNS_9allocatorISA_EEED2Ev
00000001027dfec2 t __ZNSt3__114__split_bufferIN16StringCompositor4LineERNS_9allocatorIS2_EEED2Ev
00000001027e0042 t __ZNSt3__114__split_bufferIN16StringCompositor5GlyphERNS_9allocatorIS2_EEED2Ev
00000001027df214 t __ZNSt3__114__split_bufferIN17GameBakerGraphics11DisplayModeERNS_9allocatorIS2_EEED2Ev
000000010292a5d8 t __ZNSt3__114__split_bufferIN19AgVertexDeclaration4ItemERNS_9allocatorIS2_EEED2Ev
0000000102911a4c t __ZNSt3__114__split_bufferIN20AgTextureAtlasReader11SpriteFrameERNS_9allocatorIS2_EEED2Ev
0000000102911f08 t __ZNSt3__114__split_bufferIN20AgTextureAtlasReader6SpriteERNS_9allocatorIS2_EEED2Ev
00000001028d128e t __ZNSt3__114__split_bufferIN22AgAudioChannelBaseData7CommandERNS_9allocatorIS2_EEED2Ev
00000001028563de t __ZNSt3__114__split_bufferIN3gml7PGMLVarERNS_9allocatorIS2_EEED2Ev
00000001027b1c9c t __ZNSt3__114__split_bufferIN3gml8GridNodeERNS_9allocatorIS2_EEED2Ev
0000000102848cf4 t __ZNSt3__114__split_bufferIN5Sound13SoundInstanceERNS_9allocatorIS2_EEED2Ev
000000010292402e t __ZNSt3__114__split_bufferIN9AgArchive14DirectoryEntryERNS_9allocatorIS2_EEED2Ev
0000000102904194 t __ZNSt3__114__split_bufferINS_12basic_stringIcNS_11char_traitsIcEENS_9allocatorIcEEEERNS4_IS6_EEED2Ev
00000001029044fc t __ZNSt3__114__split_bufferINS_4pairINS_12basic_stringIcNS_11char_traitsIcEENS_9allocatorIcEEEES7_EERNS5_IS8_EEED2Ev
0000000102904662 t __ZNSt3__114__split_bufferINS_4pairIccEERNS_9allocatorIS2_EEED2Ev
00000001028ffbc8 t __ZNSt3__114__split_bufferINS_4pairImPKcEERNS_9allocatorIS4_EEED2Ev
00000001028ff7b4 t __ZNSt3__114__split_bufferINS_7__stateIcEERNS_9allocatorIS2_EEED2Ev
0000000102907d7e t __ZNSt3__114__split_bufferINS_9sub_matchINS_11__wrap_iterIPKcEEEERNS_9allocatorIS6_EEED2Ev
00000001028ffa18 t __ZNSt3__114__split_bufferINS_9sub_matchIPKcEERNS_9allocatorIS4_EEED2Ev
00000001028252ee t __ZNSt3__114__split_bufferIP11AgMatrix4x4NS_9allocatorIS2_EEE10push_frontEOS2_
000000010282517a t __ZNSt3__114__split_bufferIP11AgMatrix4x4NS_9allocatorIS2_EEE9push_backEOS2_
00000001027de1b0 t __ZNSt3__114__split_bufferIP11AgMatrix4x4NS_9allocatorIS2_EEED2Ev
00000001028255d0 t __ZNSt3__114__split_bufferIP11AgMatrix4x4RNS_9allocatorIS2_EEE10push_frontERKS2_
000000010282545c t __ZNSt3__114__split_bufferIP11AgMatrix4x4RNS_9allocatorIS2_EEE9push_backEOS2_
000000010282573e t __ZNSt3__114__split_bufferIP11AgMatrix4x4RNS_9allocatorIS2_EEED2Ev
00000001028be972 t __ZNSt3__114__split_bufferIP14AgAudioChannelRNS_9allocatorIS2_EEED2Ev
00000001028105ee t __ZNSt3__114__split_bufferIP6ObjectRNS_9allocatorIS2_EEED2Ev
00000001028442e0 t __ZNSt3__114__split_bufferIP6SpriteRNS_9allocatorIS2_EEED2Ev
00000001028249b4 t __ZNSt3__114__split_bufferIP9AgPointerI11AgTexture2dENS_9allocatorIS4_EEE10push_frontEOS4_
0000000102824840 t __ZNSt3__114__split_bufferIP9AgPointerI11AgTexture2dENS_9allocatorIS4_EEE9push_backEOS4_
0000000102851e7a t __ZNSt3__114__split_bufferIP9AgPointerI11AgTexture2dENS_9allocatorIS4_EEED2Ev
0000000102852928 t __ZNSt3__114__split_bufferIP9AgPointerI11AgTexture2dERNS_9allocatorIS4_EEE10push_frontERKS4_
00000001028527b4 t __ZNSt3__114__split_bufferIP9AgPointerI11AgTexture2dERNS_9allocatorIS4_EEE9push_backEOS4_
0000000102824b24 t __ZNSt3__114__split_bufferIP9AgPointerI11AgTexture2dERNS_9allocatorIS4_EEED2Ev
000000010287ed08 t __ZNSt3__114__split_bufferIP9AgPointerIN12AgRenderList15CaptureCallbackEENS_9allocatorIS5_EEE10push_frontEOS5_
000000010287eb94 t __ZNSt3__114__split_bufferIP9AgPointerIN12AgRenderList15CaptureCallbackEENS_9allocatorIS5_EEE9push_backEOS5_
000000010287e4f4 t __ZNSt3__114__split_bufferIP9AgPointerIN12AgRenderList15CaptureCallbackEENS_9allocatorIS5_EEED2Ev
000000010287efea t __ZNSt3__114__split_bufferIP9AgPointerIN12AgRenderList15CaptureCallbackEERNS_9allocatorIS5_EEE10push_frontERKS5_
000000010287ee76 t __ZNSt3__114__split_bufferIP9AgPointerIN12AgRenderList15CaptureCallbackEERNS_9allocatorIS5_EEE9push_backEOS5_
000000010287f158 t __ZNSt3__114__split_bufferIP9AgPointerIN12AgRenderList15CaptureCallbackEERNS_9allocatorIS5_EEED2Ev
0000000102801eb6 t __ZNSt3__114__split_bufferIP9ITickableRNS_9allocatorIS2_EEED2Ev
00000001027d2e14 t __ZNSt3__114__split_bufferIPKcRNS_9allocatorIS2_EEED2Ev
0000000102825dde t __ZNSt3__114__split_bufferIPN18RenderSurfaceStack18ViewportStackEntryENS_9allocatorIS3_EEE10push_frontEOS3_
0000000102825c6a t __ZNSt3__114__split_bufferIPN18RenderSurfaceStack18ViewportStackEntryENS_9allocatorIS3_EEE9push_backEOS3_
00000001027de1e6 t __ZNSt3__114__split_bufferIPN18RenderSurfaceStack18ViewportStackEntryENS_9allocatorIS3_EEED2Ev
00000001028260c0 t __ZNSt3__114__split_bufferIPN18RenderSurfaceStack18ViewportStackEntryERNS_9allocatorIS3_EEE10push_frontERKS3_
0000000102825f4c t __ZNSt3__114__split_bufferIPN18RenderSurfaceStack18ViewportStackEntryERNS_9allocatorIS3_EEE9push_backEOS3_
000000010282622e t __ZNSt3__114__split_bufferIPN18RenderSurfaceStack18ViewportStackEntryERNS_9allocatorIS3_EEED2Ev
00000001028112ce t __ZNSt3__114__split_bufferIPN3gml10GMLSurfaceERNS_9allocatorIS3_EEED2Ev
0000000102811174 t __ZNSt3__114__split_bufferIPN3gml10GMLTextureERNS_9allocatorIS3_EEED2Ev
000000010281fa3e t __ZNSt3__114__split_bufferIPN3gml13GMLBackgroundERNS_9allocatorIS3_EEED2Ev
0000000102807ffa t __ZNSt3__114__split_bufferIPN3gml16GMLAlarmInstanceERNS_9allocatorIS3_EEED2Ev
0000000102820478 t __ZNSt3__114__split_bufferIPN3gml17GMLObjectInstanceERNS_9allocatorIS3_EEED2Ev
000000010281fdba t __ZNSt3__114__split_bufferIPN3gml7GMLFileERNS_9allocatorIS3_EEED2Ev
000000010280332a t __ZNSt3__114__split_bufferIPN3gml7GMLFontERNS_9allocatorIS3_EEED2Ev
000000010280a13c t __ZNSt3__114__split_bufferIPN3gml7GMLGridERNS_9allocatorIS3_EEED2Ev
000000010282043e t __ZNSt3__114__split_bufferIPN3gml7GMLListERNS_9allocatorIS3_EEED2Ev
0000000102809fda t __ZNSt3__114__split_bufferIPN3gml7GMLPathERNS_9allocatorIS3_EEED2Ev
000000010281ff8e t __ZNSt3__114__split_bufferIPN3gml7GMLRoomERNS_9allocatorIS3_EEED2Ev
0000000102820162 t __ZNSt3__114__split_bufferIPN3gml8GMLSoundERNS_9allocatorIS3_EEED2Ev
000000010280383a t __ZNSt3__114__split_bufferIPN3gml9GMLObjectERNS_9allocatorIS3_EEED2Ev
000000010291fb88 t __ZNSt3__114__split_bufferIPN6TagLib7MDMODELENS_9allocatorIS3_EEE10push_frontEOS3_
000000010291fa14 t __ZNSt3__114__split_bufferIPN6TagLib7MDMODELENS_9allocatorIS3_EEE9push_backEOS3_
000000010291dda4 t __ZNSt3__114__split_bufferIPN6TagLib7MDMODELENS_9allocatorIS3_EEED2Ev
000000010291fe6a t __ZNSt3__114__split_bufferIPN6TagLib7MDMODELERNS_9allocatorIS3_EEE10push_frontERKS3_
000000010291fcf6 t __ZNSt3__114__split_bufferIPN6TagLib7MDMODELERNS_9allocatorIS3_EEE9push_backEOS3_
000000010291ffd8 t __ZNSt3__114__split_bufferIPN6TagLib7MDMODELERNS_9allocatorIS3_EEED2Ev
00000001028074f8 t __ZNSt3__114__split_bufferIPN7TileSet4TileERNS_9allocatorIS3_EEED2Ev
000000010280bc5c t __ZNSt3__114__split_bufferIPN8TileGrid8GridCellERNS_9allocatorIS3_EEED2Ev
000000010280bb02 t __ZNSt3__114__split_bufferIPN8TileGrid8GridTileERNS_9allocatorIS3_EEED2Ev
0000000102906d04 t __ZNSt3__114__split_bufferIPNS_7__stateIcEENS_9allocatorIS3_EEE10push_frontEOS3_
00000001029076a0 t __ZNSt3__114__split_bufferIPNS_7__stateIcEENS_9allocatorIS3_EEE10push_frontERKS3_
0000000102906b90 t __ZNSt3__114__split_bufferIPNS_7__stateIcEENS_9allocatorIS3_EEE9push_backEOS3_
00000001029066ec t __ZNSt3__114__split_bufferIPNS_7__stateIcEENS_9allocatorIS3_EEED2Ev
0000000102906fe6 t __ZNSt3__114__split_bufferIPNS_7__stateIcEERNS_9allocatorIS3_EEE10push_frontERKS3_
0000000102906e72 t __ZNSt3__114__split_bufferIPNS_7__stateIcEERNS_9allocatorIS3_EEE9push_backEOS3_
0000000102907154 t __ZNSt3__114__split_bufferIPNS_7__stateIcEERNS_9allocatorIS3_EEED2Ev
000000010291e5ca t __ZNSt3__114__split_bufferIPPKhNS_9allocatorIS3_EEE10push_frontEOS3_
000000010291e456 t __ZNSt3__114__split_bufferIPPKhNS_9allocatorIS3_EEE9push_backEOS3_
000000010291dd6e t __ZNSt3__114__split_bufferIPPKhNS_9allocatorIS3_EEED2Ev
000000010291e8ac t __ZNSt3__114__split_bufferIPPKhRNS_9allocatorIS3_EEE10push_frontERKS3_
000000010291e738 t __ZNSt3__114__split_bufferIPPKhRNS_9allocatorIS3_EEE9push_backEOS3_
000000010291ea1a t __ZNSt3__114__split_bufferIPPKhRNS_9allocatorIS3_EEED2Ev
0000000102843ad0 t __ZNSt3__114__split_bufferIPfNS_9allocatorIS1_EEE10push_frontEOS1_
000000010284395c t __ZNSt3__114__split_bufferIPfNS_9allocatorIS1_EEE9push_backEOS1_
0000000102842d88 t __ZNSt3__114__split_bufferIPfNS_9allocatorIS1_EEED2Ev
0000000102843db2 t __ZNSt3__114__split_bufferIPfRNS_9allocatorIS1_EEE10push_frontERKS1_
0000000102843c3e t __ZNSt3__114__split_bufferIPfRNS_9allocatorIS1_EEE9push_backEOS1_
0000000102843f20 t __ZNSt3__114__split_bufferIPfRNS_9allocatorIS1_EEED2Ev
0000000102803156 t __ZNSt3__114__split_bufferIPiNS_9allocatorIS1_EEED2Ev
000000010291f0aa t __ZNSt3__114__split_bufferIPtNS_9allocatorIS1_EEE10push_frontEOS1_
000000010291ef36 t __ZNSt3__114__split_bufferIPtNS_9allocatorIS1_EEE9push_backEOS1_
000000010291dd38 t __ZNSt3__114__split_bufferIPtNS_9allocatorIS1_EEED2Ev
000000010291f38c t __ZNSt3__114__split_bufferIPtRNS_9allocatorIS1_EEE10push_frontERKS1_
000000010291f218 t __ZNSt3__114__split_bufferIPtRNS_9allocatorIS1_EEE9push_backEOS1_
000000010291f4fa t __ZNSt3__114__split_bufferIPtRNS_9allocatorIS1_EEED2Ev
00000001029181e8 t __ZNSt3__114__split_bufferIfRNS_9allocatorIfEEED2Ev
00000001027d7abc t __ZNSt3__114__split_bufferIyRNS_9allocatorIyEEED2Ev
00000001029384c6 T __ZNSt3__114__thread_proxyINS_5tupleIJM8AgThreadFvvEPS2_EEEEEPvS7_
0000000102856190 t __ZNSt3__114random_shuffleINS_11__wrap_iterIPiEEEEvT_S4_
0000000102930787 t __ZNSt3__115__equal_alignedINS_6vectorIbNS_9allocatorIbEEEELb1ELb1EEEbNS_14__bit_iteratorIT_XT0_EXLi0EEEES7_NS5_IS6_XT1_EXLi0EEEE
                 U __ZNSt3__115__get_classnameEPKcb
                 U __ZNSt3__115__thread_structC1Ev
                 U __ZNSt3__115__thread_structD1Ev
                 U __ZNSt3__115basic_streambufIcNS_11char_traitsIcEEE4syncEv
                 U __ZNSt3__115basic_streambufIcNS_11char_traitsIcEEE5imbueERKNS_6localeE
                 U __ZNSt3__115basic_streambufIcNS_11char_traitsIcEEE5uflowEv
                 U __ZNSt3__115basic_streambufIcNS_11char_traitsIcEEE6setbufEPcl
                 U __ZNSt3__115basic_streambufIcNS_11char_traitsIcEEE6xsgetnEPcl
                 U __ZNSt3__115basic_streambufIcNS_11char_traitsIcEEE6xsputnEPKcl
                 U __ZNSt3__115basic_streambufIcNS_11char_traitsIcEEE9showmanycEv
                 U __ZNSt3__115basic_streambufIcNS_11char_traitsIcEEEC2Ev
                 U __ZNSt3__115basic_streambufIcNS_11char_traitsIcEEED2Ev
000000010293570c t __ZNSt3__115basic_stringbufIcNS_11char_traitsIcEENS_9allocatorIcEEE3strERKNS_12basic_stringIcS2_S4_EE
00000001028c24b8 t __ZNSt3__116__copy_unalignedINS_6vectorIbNS_9allocatorIbEEEELb0EEENS_14__bit_iteratorIT_Lb0EXLi0EEEENS5_IS6_XT0_EXLi0EEEES8_S7_
0000000102904ba2 t __ZNSt3__117__owns_two_statesIcED2Ev
00000001028ac95c t __ZNSt3__118__insertion_sort_3IRPFb13AgDisplayModeS1_EPS1_EEvT0_S6_T_
0000000102858635 t __ZNSt3__118__insertion_sort_3IRPFbRKN3gml7PGMLVarES4_EPS2_EEvT0_S9_T_
                 U __ZNSt3__119__shared_weak_count12__add_sharedEv
                 U __ZNSt3__119__shared_weak_count16__release_sharedEv
                 U __ZNSt3__119__shared_weak_countD2Ev
                 U __ZNSt3__119__thread_local_dataEv
                 U __ZNSt3__120__get_collation_nameEPKc
                 U __ZNSt3__120__throw_system_errorEiPKc
0000000102938544 t __ZNSt3__121__thread_specific_ptrINS_15__thread_structEE5resetEPS1_
00000001029357f5 t __ZNSt3__124__put_character_sequenceIcNS_11char_traitsIcEEEERNS_13basic_ostreamIT_T0_EES7_PKS4_m
0000000102858ea6 t __ZNSt3__124uniform_int_distributionIlEclINS_12__rs_defaultEEElRT_RKNS1_10param_typeE
0000000102859076 t __ZNSt3__125__independent_bits_engineINS_12__rs_defaultEyE6__evalENS_17integral_constantIbLb1EEE
0000000102858f3e t __ZNSt3__125__independent_bits_engineINS_12__rs_defaultEyEC2ERS1_m
00000001028aca37 t __ZNSt3__127__insertion_sort_incompleteIRPFb13AgDisplayModeS1_EPS1_EEbT0_S6_T_
000000010285886f t __ZNSt3__127__insertion_sort_incompleteIRPFbRKN3gml7PGMLVarES4_EPS2_EEbT0_S9_T_
00000001028831b0 t __ZNSt3__13mapI11AgStringKey9AgPointerI13AgLeaderboardENS_4lessIS1_EENS_9allocatorINS_4pairIKS1_S4_EEEEE16__find_equal_keyERPNS_16__tree_node_baseIPvEERS9_
000000010288323a t __ZNSt3__13mapI11AgStringKey9AgPointerI13AgLeaderboardENS_4lessIS1_EENS_9allocatorINS_4pairIKS1_S4_EEEEE25__construct_node_with_keyEOS1_
0000000102881c30 t __ZNSt3__13mapI11AgStringKey9AgPointerI13AgLeaderboardENS_4lessIS1_EENS_9allocatorINS_4pairIKS1_S4_EEEEEixEOS1_
0000000102882eb8 t __ZNSt3__13mapI11AgStringKeyjNS_4lessIS1_EENS_9allocatorINS_4pairIKS1_jEEEEE16__find_equal_keyERPNS_16__tree_node_baseIPvEERS6_
0000000102882f42 t __ZNSt3__13mapI11AgStringKeyjNS_4lessIS1_EENS_9allocatorINS_4pairIKS1_jEEEEE25__construct_node_with_keyEOS1_
0000000102882e4a t __ZNSt3__13mapI11AgStringKeyjNS_4lessIS1_EENS_9allocatorINS_4pairIKS1_jEEEEEixEOS1_
00000001029304fe t __ZNSt3__13mapI25AgControllerComponentTypeNS_4listIP21AgControllerComponentNS_9allocatorIS4_EEEENS_4lessIS1_EENS5_INS_4pairIKS1_S7_EEEEE16__find_equal_keyERPNS_16__tree_node_baseIPvEERSB_
00000001028c2770 t __ZNSt3__13mapI25AgControllerComponentTypeNS_4listIP21AgControllerComponentNS_9allocatorIS4_EEEENS_4lessIS1_EENS5_INS_4pairIKS1_S7_EEEEEixEOS1_
0000000102892d06 t __ZNSt3__13mapI6AgHashPN9AgFactoryI10AgResourceE10IAllocatorENS_4lessIS1_EENS_9allocatorINS_4pairIKS1_S6_EEEEE16__find_equal_keyERPNS_16__tree_node_baseIPvEERSB_
0000000102892c2e t __ZNSt3__13mapI6AgHashPN9AgFactoryI10AgResourceE10IAllocatorENS_4lessIS1_EENS_9allocatorINS_4pairIKS1_S6_EEEEEixERSB_
00000001028bb5c8 t __ZNSt3__13mapI6AgPathN14AgVirtualMount8FileDataENS_4lessIS1_EENS_9allocatorINS_4pairIKS1_S3_EEEEE16__find_equal_keyERPNS_16__tree_node_baseIPvEERS8_
00000001028bb64c t __ZNSt3__13mapI6AgPathN14AgVirtualMount8FileDataENS_4lessIS1_EENS_9allocatorINS_4pairIKS1_S3_EEEEE25__construct_node_with_keyERS8_
00000001028bb24e t __ZNSt3__13mapI6AgPathN14AgVirtualMount8FileDataENS_4lessIS1_EENS_9allocatorINS_4pairIKS1_S3_EEEEEixERS8_
000000010286950c t __ZNSt3__13mapI8AgString9AgPointerI7AgMountENS_4lessIS1_EENS_9allocatorINS_4pairIKS1_S4_EEEEE16__find_equal_keyERPNS_16__tree_node_baseIPvEERS9_
0000000102869590 t __ZNSt3__13mapI8AgString9AgPointerI7AgMountENS_4lessIS1_EENS_9allocatorINS_4pairIKS1_S4_EEEEE25__construct_node_with_keyERS9_
00000001028679e4 t __ZNSt3__13mapI8AgString9AgPointerI7AgMountENS_4lessIS1_EENS_9allocatorINS_4pairIKS1_S4_EEEEEixERS9_
000000010284438a t __ZNSt3__13mapI8AgStringiNS_4lessIS1_EENS_9allocatorINS_4pairIKS1_iEEEEE16__find_equal_keyERPNS_16__tree_node_baseIPvEERS6_
000000010284440e t __ZNSt3__13mapI8AgStringiNS_4lessIS1_EENS_9allocatorINS_4pairIKS1_iEEEEE25__construct_node_with_keyERS6_
00000001028417a8 t __ZNSt3__13mapI8AgStringiNS_4lessIS1_EENS_9allocatorINS_4pairIKS1_iEEEEEixERS6_
000000010287a076 t __ZNSt3__13mapI8AgStringjNS_4lessIS1_EENS_9allocatorINS_4pairIKS1_jEEEEE16__find_equal_keyERPNS_16__tree_node_baseIPvEERS6_
000000010287a0fa t __ZNSt3__13mapI8AgStringjNS_4lessIS1_EENS_9allocatorINS_4pairIKS1_jEEEEE25__construct_node_with_keyEOS1_
000000010287a488 t __ZNSt3__13mapI8AgStringjNS_4lessIS1_EENS_9allocatorINS_4pairIKS1_jEEEEE25__construct_node_with_keyERS6_
00000001028797cc t __ZNSt3__13mapI8AgStringjNS_4lessIS1_EENS_9allocatorINS_4pairIKS1_jEEEEEixEOS1_
0000000102879934 t __ZNSt3__13mapI8AgStringjNS_4lessIS1_EENS_9allocatorINS_4pairIKS1_jEEEEEixERS6_
00000001029312b6 t __ZNSt3__13mapINS_12basic_stringIcNS_11char_traitsIcEENS_9allocatorIcEEEE26AgControllerComponentIndexNS_4lessIS6_EENS4_INS_4pairIKS6_S7_EEEEE16__find_equal_keyERPNS_16__tree_node_baseIPvEERSB_
000000010292f426 t __ZNSt3__13mapINS_12basic_stringIcNS_11char_traitsIcEENS_9allocatorIcEEEE26AgControllerComponentIndexNS_4lessIS6_EENS4_INS_4pairIKS6_S7_EEEEEixEOS6_
00000001028eca98 t __ZNSt3__13mapINS_12basic_stringIcNS_11char_traitsIcEENS_9allocatorIcEEEEP5FITAGNS_4lessIS6_EENS4_INS_4pairIKS6_S8_EEEEE16__find_equal_keyERPNS_16__tree_node_baseIPvEERSC_
00000001028ecc1a t __ZNSt3__13mapINS_12basic_stringIcNS_11char_traitsIcEENS_9allocatorIcEEEEP5FITAGNS_4lessIS6_EENS4_INS_4pairIKS6_S8_EEEEE25__construct_node_with_keyERSC_
00000001028ec97e t __ZNSt3__13mapINS_12basic_stringIcNS_11char_traitsIcEENS_9allocatorIcEEEEP5FITAGNS_4lessIS6_EENS4_INS_4pairIKS6_S8_EEEEEixEOS6_
00000001028ec834 t __ZNSt3__13mapINS_12basic_stringIcNS_11char_traitsIcEENS_9allocatorIcEEEEP5FITAGNS_4lessIS6_EENS4_INS_4pairIKS6_S8_EEEEEixERSC_
00000001027cf38c t __ZNSt3__13mapINS_12basic_stringIcNS_11char_traitsIcEENS_9allocatorIcEEEEiNS_4lessIS6_EENS4_INS_4pairIKS6_iEEEEE16__find_equal_keyERPNS_16__tree_node_baseIPvEERSA_
00000001027cf2ae t __ZNSt3__13mapINS_12basic_stringIcNS_11char_traitsIcEENS_9allocatorIcEEEEiNS_4lessIS6_EENS4_INS_4pairIKS6_iEEEEEixEOS6_
00000001028bedce t __ZNSt3__13mapIP13AgAudioSource9AgPointerIS1_ENS_4lessIS2_EENS_9allocatorINS_4pairIKS2_S4_EEEEE16__find_equal_keyERPNS_16__tree_node_baseIPvEERS9_
00000001028be5c0 t __ZNSt3__13mapIP13AgAudioSource9AgPointerIS1_ENS_4lessIS2_EENS_9allocatorINS_4pairIKS2_S4_EEEEEixEOS2_
00000001028befa2 t __ZNSt3__13mapIP14AgAudioChannel9AgPointerIS1_ENS_4lessIS2_EENS_9allocatorINS_4pairIKS2_S4_EEEEE16__find_equal_keyERPNS_16__tree_node_baseIPvEERS9_
00000001028be638 t __ZNSt3__13mapIP14AgAudioChannel9AgPointerIS1_ENS_4lessIS2_EENS_9allocatorINS_4pairIKS2_S4_EEEEEixEOS2_
000000010293d6b6 t __ZNSt3__13mapIP19_SDL_GameController9AgPointerI12AgControllerENS_4lessIS2_EENS_9allocatorINS_4pairIKS2_S5_EEEEE16__find_equal_keyERPNS_16__tree_node_baseIPvEERSA_
000000010293d43e t __ZNSt3__13mapIP19_SDL_GameController9AgPointerI12AgControllerENS_4lessIS2_EENS_9allocatorINS_4pairIKS2_S5_EEEEEixERSA_
00000001028b3d10 t __ZNSt3__13mapIP9AgDisplay9AgPointerIS1_ENS_4lessIS2_EENS_9allocatorINS_4pairIKS2_S4_EEEEE16__find_equal_keyERPNS_16__tree_node_baseIPvEERS9_
00000001028b3b60 t __ZNSt3__13mapIP9AgDisplay9AgPointerIS1_ENS_4lessIS2_EENS_9allocatorINS_4pairIKS2_S4_EEEEEixEOS2_
00000001028521c4 t __ZNSt3__13mapIi15ReservedSurfaceNS_4lessIiEENS_9allocatorINS_4pairIKiS1_EEEEE16__find_equal_keyERPNS_16__tree_node_baseIPvEERS6_
000000010285182e t __ZNSt3__13mapIi15ReservedSurfaceNS_4lessIiEENS_9allocatorINS_4pairIKiS1_EEEEEixERS6_
000000010287a326 t __ZNSt3__13mapIiN29AgResourceShaderProgramOpenGL18ParameterConstantsENS_4lessIiEENS_9allocatorINS_4pairIKiS2_EEEEE16__find_equal_keyERPNS_16__tree_node_baseIPvEERS7_
000000010287a380 t __ZNSt3__13mapIiN29AgResourceShaderProgramOpenGL18ParameterConstantsENS_4lessIiEENS_9allocatorINS_4pairIKiS2_EEEEE25__construct_node_with_keyERS7_
00000001028798b8 t __ZNSt3__13mapIiN29AgResourceShaderProgramOpenGL18ParameterConstantsENS_4lessIiEENS_9allocatorINS_4pairIKiS2_EEEEEixERS7_
000000010280b984 t __ZNSt3__13mapIiN8TileGrid8GridTileENS_4lessIiEENS_9allocatorINS_4pairIKiS2_EEEEE16__find_equal_keyERPNS_16__tree_node_baseIPvEERS7_
000000010280b5f0 t __ZNSt3__13mapIiN8TileGrid8GridTileENS_4lessIiEENS_9allocatorINS_4pairIKiS2_EEEEEixERS7_
000000010287a200 t __ZNSt3__13mapIiNS_6vectorIfNS_9allocatorIfEEEENS_4lessIiEENS2_INS_4pairIKiS4_EEEEE16__find_equal_keyERPNS_16__tree_node_baseIPvEERS8_
000000010287983a t __ZNSt3__13mapIiNS_6vectorIfNS_9allocatorIfEEEENS_4lessIiEENS2_INS_4pairIKiS4_EEEEEixERS8_
00000001028c0142 t __ZNSt3__13mapIiP10PluginNodeNS_4lessIiEENS_9allocatorINS_4pairIKiS2_EEEEE16__find_equal_keyERPNS_16__tree_node_baseIPvEERS7_
00000001028c009a t __ZNSt3__13mapIiP10PluginNodeNS_4lessIiEENS_9allocatorINS_4pairIKiS2_EEEEEixEOi
000000010280782a t __ZNSt3__13mapIiPN7TileSet9TileLayerENS_4lessIiEENS_9allocatorINS_4pairIKiS3_EEEEE16__find_equal_keyERPNS_16__tree_node_baseIPvEERS8_
0000000102807276 t __ZNSt3__13mapIiPN7TileSet9TileLayerENS_4lessIiEENS_9allocatorINS_4pairIKiS3_EEEEEixERS8_
00000001028eccca t __ZNSt3__13mapIiPNS0_INS_12basic_stringIcNS_11char_traitsIcEENS_9allocatorIcEEEEP5FITAGNS_4lessIS6_EENS4_INS_4pairIKS6_S8_EEEEEENS9_IiEENS4_INSB_IKiSG_EEEEE16__find_equal_keyERPNS_16__tree_node_baseIPvEERSI_
00000001028ec910 t __ZNSt3__13mapIiPNS0_INS_12basic_stringIcNS_11char_traitsIcEENS_9allocatorIcEEEEP5FITAGNS_4lessIS6_EENS4_INS_4pairIKS6_S8_EEEEEENS9_IiEENS4_INSB_IKiSG_EEEEEixEOi
00000001028ec8a2 t __ZNSt3__13mapIiPNS0_INS_12basic_stringIcNS_11char_traitsIcEENS_9allocatorIcEEEEP5FITAGNS_4lessIS6_EENS4_INS_4pairIKS6_S8_EEEEEENS9_IiEENS4_INSB_IKiSG_EEEEEixERSI_
00000001028e7688 t __ZNSt3__13mapIiPNS0_ItP10tagTagInfoNS_4lessItEENS_9allocatorINS_4pairIKtS2_EEEEEENS3_IiEENS5_INS6_IKiSB_EEEEE16__find_equal_keyERPNS_16__tree_node_baseIPvEERSD_
00000001028e74b4 t __ZNSt3__13mapIiPNS0_ItP10tagTagInfoNS_4lessItEENS_9allocatorINS_4pairIKtS2_EEEEEENS3_IiEENS5_INS6_IKiSB_EEEEEixEOi
000000010283864e t __ZNSt3__13mapIiiNS_4lessIiEENS_9allocatorINS_4pairIKiiEEEEE16__find_equal_keyERPNS_16__tree_node_baseIPvEERS5_
0000000102838560 t __ZNSt3__13mapIiiNS_4lessIiEENS_9allocatorINS_4pairIKiiEEEEEixEOi
0000000102877294 t __ZNSt3__13mapIj9AgPointerI11AgTexture2dENS_4lessIjEENS_9allocatorINS_4pairIKjS3_EEEEE16__find_equal_keyERPNS_16__tree_node_baseIPvEERS8_
0000000102875436 t __ZNSt3__13mapIj9AgPointerI11AgTexture2dENS_4lessIjEENS_9allocatorINS_4pairIKjS3_EEEEEixERS8_
00000001029316c8 t __ZNSt3__13mapIj9AgPointerI12AgControllerENS_4lessIjEENS_9allocatorINS_4pairIKjS3_EEEEE16__find_equal_keyERPNS_16__tree_node_baseIPvEERS8_
000000010292f4c0 t __ZNSt3__13mapIj9AgPointerI12AgControllerENS_4lessIjEENS_9allocatorINS_4pairIKjS3_EEEEEixEOj
0000000102935b2a t __ZNSt3__13mapIj9AgPointerI6AgFileENS_4lessIjEENS_9allocatorINS_4pairIKjS3_EEEEE16__find_equal_keyERPNS_16__tree_node_baseIPvEERS8_
0000000102934b88 t __ZNSt3__13mapIj9AgPointerI6AgFileENS_4lessIjEENS_9allocatorINS_4pairIKjS3_EEEEEixERS8_
000000010291ded0 t __ZNSt3__13mapIjiNS_4lessIjEENS_9allocatorINS_4pairIKjiEEEEE16__find_equal_keyERPNS_16__tree_node_baseIPvEERS5_
000000010291dcca t __ZNSt3__13mapIjiNS_4lessIjEENS_9allocatorINS_4pairIKjiEEEEEixERS5_
00000001028e75de t __ZNSt3__13mapItP10tagTagInfoNS_4lessItEENS_9allocatorINS_4pairIKtS2_EEEEE16__find_equal_keyERPNS_16__tree_node_baseIPvEERS7_
00000001028e7444 t __ZNSt3__13mapItP10tagTagInfoNS_4lessItEENS_9allocatorINS_4pairIKtS2_EEEEEixERS7_
0000000102887b9a t __ZNSt3__13mapIx9AgPointerI6AgUserENS_4lessIxEENS_9allocatorINS_4pairIKxS3_EEEEE16__find_equal_keyERPNS_16__tree_node_baseIPvEERS8_
0000000102887262 t __ZNSt3__13mapIx9AgPointerI6AgUserENS_4lessIxEENS_9allocatorINS_4pairIKxS3_EEEEEixEOx
00000001028d37fe t __ZNSt3__13mapIx9AgPointerI9AgProfileENS_4lessIxEENS_9allocatorINS_4pairIKxS3_EEEEE16__find_equal_keyERPNS_16__tree_node_baseIPvEERS8_
00000001028d3428 t __ZNSt3__13mapIx9AgPointerI9AgProfileENS_4lessIxEENS_9allocatorINS_4pairIKxS3_EEEEEixEOx
00000001028d3750 t __ZNSt3__13mapIy9AgPointerI9AgProfileENS_4lessIyEENS_9allocatorINS_4pairIKyS3_EEEEE16__find_equal_keyERPNS_16__tree_node_baseIPvEERS8_
00000001028d33b0 t __ZNSt3__13mapIy9AgPointerI9AgProfileENS_4lessIyEENS_9allocatorINS_4pairIKyS3_EEEEEixEOy
00000001027f52b8 t __ZNSt3__13mapIyN2GB4Font14FontCacheEntryENS_4lessIyEENS_9allocatorINS_4pairIKyS3_EEEEE16__find_equal_keyERPNS_16__tree_node_baseIPvEERS8_
00000001027f5316 t __ZNSt3__13mapIyN2GB4Font14FontCacheEntryENS_4lessIyEENS_9allocatorINS_4pairIKyS3_EEEEE25__construct_node_with_keyERS8_
00000001027f469e t __ZNSt3__13mapIyN2GB4Font14FontCacheEntryENS_4lessIyEENS_9allocatorINS_4pairIKyS3_EEEEEixERS8_
000000010292330a t __ZNSt3__14listI9AgPointerI9AgArchiveENS_9allocatorIS3_EEE5eraseENS_21__list_const_iteratorIS3_PvEES9_
0000000102923254 t __ZNSt3__14listI9AgPointerI9AgArchiveENS_9allocatorIS3_EEE9push_backERKS3_
00000001027d8ee2 t __ZNSt3__14listIN3gml7GMLPath9NodePointENS_9allocatorIS3_EEE5eraseENS_21__list_const_iteratorIS3_PvEES9_
00000001027d8d48 t __ZNSt3__14listIN3gml7GMLPath9NodePointENS_9allocatorIS3_EEE6assignINS_21__list_const_iteratorIS3_PvEEEEvT_SB_PNS_9enable_ifIXsr19__is_input_iteratorISB_EE5valueEvE4typeE
00000001027d8db0 t __ZNSt3__14listIN3gml7GMLPath9NodePointENS_9allocatorIS3_EEE6insertINS_21__list_const_iteratorIS3_PvEEEENS_15__list_iteratorIS3_S9_EESA_T_SD_PNS_9enable_ifIXsr19__is_input_iteratorISD_EE5valueEvE4typeE
                 U __ZNSt3__15ctypeIcE2idE
0000000102824d0c t __ZNSt3__15dequeI11AgMatrix4x4NS_9allocatorIS1_EEE19__add_back_capacityEv
0000000102826264 t __ZNSt3__15dequeI11AgMatrix4x4NS_9allocatorIS1_EEE8pop_backEv
0000000102824c56 t __ZNSt3__15dequeI11AgMatrix4x4NS_9allocatorIS1_EEE9push_backERKS1_
0000000102852340 t __ZNSt3__15dequeI9AgPointerI11AgTexture2dENS_9allocatorIS3_EEE19__add_back_capacityEv
0000000102824b5a t __ZNSt3__15dequeI9AgPointerI11AgTexture2dENS_9allocatorIS3_EEE8pop_backEv
0000000102852a9c t __ZNSt3__15dequeI9AgPointerI11AgTexture2dENS_9allocatorIS3_EEE9pop_frontEv
000000010285226e t __ZNSt3__15dequeI9AgPointerI11AgTexture2dENS_9allocatorIS3_EEE9push_backEOS3_
000000010282476c t __ZNSt3__15dequeI9AgPointerI11AgTexture2dENS_9allocatorIS3_EEE9push_backERKS3_
000000010287e722 t __ZNSt3__15dequeI9AgPointerIN12AgRenderList15CaptureCallbackEENS_9allocatorIS4_EEE19__add_back_capacityEv
000000010287f18e t __ZNSt3__15dequeI9AgPointerIN12AgRenderList15CaptureCallbackEENS_9allocatorIS4_EEE8pop_backEv
000000010287e650 t __ZNSt3__15dequeI9AgPointerIN12AgRenderList15CaptureCallbackEENS_9allocatorIS4_EEE9push_backERKS4_
00000001028257f8 t __ZNSt3__15dequeIN18RenderSurfaceStack18ViewportStackEntryENS_9allocatorIS2_EEE19__add_back_capacityEv
00000001028262b4 t __ZNSt3__15dequeIN18RenderSurfaceStack18ViewportStackEntryENS_9allocatorIS2_EEE8pop_backEv
0000000102825774 t __ZNSt3__15dequeIN18RenderSurfaceStack18ViewportStackEntryENS_9allocatorIS2_EEE9push_backERKS2_
000000010291f5a2 t __ZNSt3__15dequeIN6TagLib7MDMODELENS_9allocatorIS2_EEE19__add_back_capacityEv
000000010291de7e t __ZNSt3__15dequeIN6TagLib7MDMODELENS_9allocatorIS2_EEE8pop_backEv
000000010291f530 t __ZNSt3__15dequeIN6TagLib7MDMODELENS_9allocatorIS2_EEE9push_backERKS2_
00000001029065a6 t __ZNSt3__15dequeINS_7__stateIcEENS_9allocatorIS2_EEE10push_frontEOS2_
0000000102906722 t __ZNSt3__15dequeINS_7__stateIcEENS_9allocatorIS2_EEE19__add_back_capacityEv
00000001029072ac t __ZNSt3__15dequeINS_7__stateIcEENS_9allocatorIS2_EEE20__add_front_capacityEv
00000001029064fe t __ZNSt3__15dequeINS_7__stateIcEENS_9allocatorIS2_EEE8pop_backEv
00000001029063bc t __ZNSt3__15dequeINS_7__stateIcEENS_9allocatorIS2_EEE9push_backEOS2_
000000010291dfe4 t __ZNSt3__15dequeIPKhNS_9allocatorIS2_EEE19__add_back_capacityEv
000000010291ddda t __ZNSt3__15dequeIPKhNS_9allocatorIS2_EEE8pop_backEv
000000010291df72 t __ZNSt3__15dequeIPKhNS_9allocatorIS2_EEE9push_backERKS2_
00000001028434ea t __ZNSt3__15dequeIfNS_9allocatorIfEEE19__add_back_capacityEv
0000000102843478 t __ZNSt3__15dequeIfNS_9allocatorIfEEE9push_backEOf
000000010281f680 t __ZNSt3__15dequeIiNS_9allocatorIiEEE8pop_backEv
000000010281f82e t __ZNSt3__15dequeIiNS_9allocatorIiEEE9push_backEOi
000000010291eac4 t __ZNSt3__15dequeItNS_9allocatorItEEE19__add_back_capacityEv
000000010291de2c t __ZNSt3__15dequeItNS_9allocatorItEEE8pop_backEv
000000010292000e t __ZNSt3__15dequeItNS_9allocatorItEEE9push_backEOt
000000010291ea50 t __ZNSt3__15dequeItNS_9allocatorItEEE9push_backERKt
00000001028ac059 t __ZNSt3__16__sortIRPFb13AgDisplayModeS1_EPS1_EEvT0_S6_T_
00000001028564d0 t __ZNSt3__16__sortIRPFbRKN3gml7PGMLVarES4_EPS2_EEvT0_S9_T_
00000001028bb85e t __ZNSt3__16__treeI6AgPathNS_4lessIS1_EENS_9allocatorIS1_EEE12__find_equalIS1_EERPNS_16__tree_node_baseIPvEESC_RKT_
00000001028bb70c t __ZNSt3__16__treeI6AgPathNS_4lessIS1_EENS_9allocatorIS1_EEE15__insert_uniqueIS1_EENS_4pairINS_15__tree_iteratorIS1_PNS_11__tree_nodeIS1_PvEElEEbEEOT_
00000001028bb7aa t __ZNSt3__16__treeI6AgPathNS_4lessIS1_EENS_9allocatorIS1_EEE16__construct_nodeIJS1_EEENS_10unique_ptrINS_11__tree_nodeIS1_PvEENS_22__tree_node_destructorINS4_ISB_EEEEEEDpOT_
00000001028bb8e2 t __ZNSt3__16__treeI6AgPathNS_4lessIS1_EENS_9allocatorIS1_EEE16__insert_node_atEPNS_16__tree_node_baseIPvEERSA_SA_
00000001028bb810 t __ZNSt3__16__treeI6AgPathNS_4lessIS1_EENS_9allocatorIS1_EEE20__node_insert_uniqueEPNS_11__tree_nodeIS1_PvEE
00000001028bb3c2 t __ZNSt3__16__treeI6AgPathNS_4lessIS1_EENS_9allocatorIS1_EEE7destroyEPNS_11__tree_nodeIS1_PvEE
00000001028832b8 t __ZNSt3__16__treeINS_12__value_typeI11AgStringKey9AgPointerI13AgLeaderboardEEENS_19__map_value_compareIS2_S6_NS_4lessIS2_EELb1EEENS_9allocatorIS6_EEE16__insert_node_atEPNS_16__tree_node_baseIPvEERSH_SH_
0000000102883138 t __ZNSt3__16__treeINS_12__value_typeI11AgStringKey9AgPointerI13AgLeaderboardEEENS_19__map_value_compareIS2_S6_NS_4lessIS2_EELb1EEENS_9allocatorIS6_EEE4findIS2_EENS_15__tree_iteratorIS6_PNS_11__tree_nodeIS6_PvEElEERKT_
00000001028837b8 t __ZNSt3__16__treeINS_12__value_typeI11AgStringKey9AgPointerI13AgLeaderboardEEENS_19__map_value_compareIS2_S6_NS_4lessIS2_EELb1EEENS_9allocatorIS6_EEE5eraseENS_21__tree_const_iteratorIS6_PNS_11__tree_nodeIS6_PvEElEE
0000000102882602 t __ZNSt3__16__treeINS_12__value_typeI11AgStringKey9AgPointerI13AgLeaderboardEEENS_19__map_value_compareIS2_S6_NS_4lessIS2_EELb1EEENS_9allocatorIS6_EEE7destroyEPNS_11__tree_nodeIS6_PvEE
0000000102882fb8 t __ZNSt3__16__treeINS_12__value_typeI11AgStringKeyjEENS_19__map_value_compareIS2_S3_NS_4lessIS2_EELb1EEENS_9allocatorIS3_EEE16__insert_node_atEPNS_16__tree_node_baseIPvEERSE_SE_
00000001028826d4 t __ZNSt3__16__treeINS_12__value_typeI11AgStringKeyjEENS_19__map_value_compareIS2_S3_NS_4lessIS2_EELb1EEENS_9allocatorIS3_EEE7destroyEPNS_11__tree_nodeIS3_PvEE
00000001028dbc0c t __ZNSt3__16__treeINS_12__value_typeI11AgStringRef10AgJsonNodeEENS_19__map_value_compareIS2_S4_NS_4lessIS2_EELb1EEENS_9allocatorIS4_EEE12__find_equalIS4_EERPNS_16__tree_node_baseIPvEESH_RKT_
00000001028dba8c t __ZNSt3__16__treeINS_12__value_typeI11AgStringRef10AgJsonNodeEENS_19__map_value_compareIS2_S4_NS_4lessIS2_EELb1EEENS_9allocatorIS4_EEE15__insert_uniqueINS_4pairIS2_S3_EEEENSD_INS_15__tree_iteratorIS4_PNS_11__tree_nodeIS4_PvEElEEbEEOT_
00000001028dbb2a t __ZNSt3__16__treeINS_12__value_typeI11AgStringRef10AgJsonNodeEENS_19__map_value_compareIS2_S4_NS_4lessIS2_EELb1EEENS_9allocatorIS4_EEE16__construct_nodeIJNS_4pairIS2_S3_EEEEENS_10unique_ptrINS_11__tree_nodeIS4_PvEENS_22__tree_node_destructorINS9_ISI_EEEEEEDpOT_
00000001028dbc90 t __ZNSt3__16__treeINS_12__value_typeI11AgStringRef10AgJsonNodeEENS_19__map_value_compareIS2_S4_NS_4lessIS2_EELb1EEENS_9allocatorIS4_EEE16__insert_node_atEPNS_16__tree_node_baseIPvEERSF_SF_
00000001028dbbbe t __ZNSt3__16__treeINS_12__value_typeI11AgStringRef10AgJsonNodeEENS_19__map_value_compareIS2_S4_NS_4lessIS2_EELb1EEENS_9allocatorIS4_EEE20__node_insert_uniqueEPNS_11__tree_nodeIS4_PvEE
00000001028dba18 t __ZNSt3__16__treeINS_12__value_typeI11AgStringRef10AgJsonNodeEENS_19__map_value_compareIS2_S4_NS_4lessIS2_EELb1EEENS_9allocatorIS4_EEE4findIS2_EENS_15__tree_iteratorIS4_PNS_11__tree_nodeIS4_PvEElEERKT_
0000000102930558 t __ZNSt3__16__treeINS_12__value_typeI25AgControllerComponentTypeNS_4listIP21AgControllerComponentNS_9allocatorIS5_EEEEEENS_19__map_value_compareIS2_S9_NS_4lessIS2_EELb1EEENS6_IS9_EEE16__insert_node_atEPNS_16__tree_node_baseIPvEERSJ_SJ_
00000001029305a8 t __ZNSt3__16__treeINS_12__value_typeI25AgControllerComponentTypeNS_4listIP21AgControllerComponentNS_9allocatorIS5_EEEEEENS_19__map_value_compareIS2_S9_NS_4lessIS2_EELb1EEENS6_IS9_EEE7destroyEPNS_11__tree_nodeIS9_PvEE
0000000102892d60 t __ZNSt3__16__treeINS_12__value_typeI6AgHashPN9AgFactoryI10AgResourceE10IAllocatorEEENS_19__map_value_compareIS2_S8_NS_4lessIS2_EELb1EEENS_9allocatorIS8_EEE16__insert_node_atEPNS_16__tree_node_baseIPvEERSJ_SJ_
0000000102893938 t __ZNSt3__16__treeINS_12__value_typeI6AgHashPN9AgFactoryI10AgResourceE10IAllocatorEEENS_19__map_value_compareIS2_S8_NS_4lessIS2_EELb1EEENS_9allocatorIS8_EEE4findIS2_EENS_15__tree_iteratorIS8_PNS_11__tree_nodeIS8_PvEElEERKT_
0000000102892b02 t __ZNSt3__16__treeINS_12__value_typeI6AgHashPN9AgFactoryI10AgResourceE10IAllocatorEEENS_19__map_value_compareIS2_S8_NS_4lessIS2_EELb1EEENS_9allocatorIS8_EEE7destroyEPNS_11__tree_nodeIS8_PvEE
00000001028bb6c2 t __ZNSt3__16__treeINS_12__value_typeI6AgPathN14AgVirtualMount8FileDataEEENS_19__map_value_compareIS2_S5_NS_4lessIS2_EELb1EEENS_9allocatorIS5_EEE16__insert_node_atEPNS_16__tree_node_baseIPvEERSG_SG_
00000001028bb406 t __ZNSt3__16__treeINS_12__value_typeI6AgPathN14AgVirtualMount8FileDataEEENS_19__map_value_compareIS2_S5_NS_4lessIS2_EELb1EEENS_9allocatorIS5_EEE4findIS2_EENS_15__tree_iteratorIS5_PNS_11__tree_nodeIS5_PvEElEERKT_
00000001028bb47a t __ZNSt3__16__treeINS_12__value_typeI6AgPathN14AgVirtualMount8FileDataEEENS_19__map_value_compareIS2_S5_NS_4lessIS2_EELb1EEENS_9allocatorIS5_EEE5eraseENS_21__tree_const_iteratorIS5_PNS_11__tree_nodeIS5_PvEElEE
00000001028bb2f0 t __ZNSt3__16__treeINS_12__value_typeI6AgPathN14AgVirtualMount8FileDataEEENS_19__map_value_compareIS2_S5_NS_4lessIS2_EELb1EEENS_9allocatorIS5_EEE7destroyEPNS_11__tree_nodeIS5_PvEE
0000000102869650 t __ZNSt3__16__treeINS_12__value_typeI8AgString9AgPointerI7AgMountEEENS_19__map_value_compareIS2_S6_NS_4lessIS2_EELb1EEENS_9allocatorIS6_EEE14__erase_uniqueIS2_EEmRKT_
0000000102869600 t __ZNSt3__16__treeINS_12__value_typeI8AgString9AgPointerI7AgMountEEENS_19__map_value_compareIS2_S6_NS_4lessIS2_EELb1EEENS_9allocatorIS6_EEE16__insert_node_atEPNS_16__tree_node_baseIPvEERSH_SH_
0000000102869684 t __ZNSt3__16__treeINS_12__value_typeI8AgString9AgPointerI7AgMountEEENS_19__map_value_compareIS2_S6_NS_4lessIS2_EELb1EEENS_9allocatorIS6_EEE4findIS2_EENS_15__tree_iteratorIS6_PNS_11__tree_nodeIS6_PvEElEERKT_
00000001028696f8 t __ZNSt3__16__treeINS_12__value_typeI8AgString9AgPointerI7AgMountEEENS_19__map_value_compareIS2_S6_NS_4lessIS2_EELb1EEENS_9allocatorIS6_EEE5eraseENS_21__tree_const_iteratorIS6_PNS_11__tree_nodeIS6_PvEElEE
0000000102867f30 t __ZNSt3__16__treeINS_12__value_typeI8AgString9AgPointerI7AgMountEEENS_19__map_value_compareIS2_S6_NS_4lessIS2_EELb1EEENS_9allocatorIS6_EEE7destroyEPNS_11__tree_nodeIS6_PvEE
00000001028160c6 t __ZNSt3__16__treeINS_12__value_typeI8AgStringN13GBSaveManager10SaveBufferEEENS_19__map_value_compareIS2_S5_NS_4lessIS2_EELb1EEENS_9allocatorIS5_EEE12__find_equalIS5_EERPNS_16__tree_node_baseIPvEESI_RKT_
0000000102815f5c t __ZNSt3__16__treeINS_12__value_typeI8AgStringN13GBSaveManager10SaveBufferEEENS_19__map_value_compareIS2_S5_NS_4lessIS2_EELb1EEENS_9allocatorIS5_EEE15__insert_uniqueINS_4pairIS2_S4_EEEENSE_INS_15__tree_iteratorIS5_PNS_11__tree_nodeIS5_PvEElEEbEEOT_
0000000102815ffa t __ZNSt3__16__treeINS_12__value_typeI8AgStringN13GBSaveManager10SaveBufferEEENS_19__map_value_compareIS2_S5_NS_4lessIS2_EELb1EEENS_9allocatorIS5_EEE16__construct_nodeIJNS_4pairIS2_S4_EEEEENS_10unique_ptrINS_11__tree_nodeIS5_PvEENS_22__tree_node_destructorINSA_ISJ_EEEEEEDpOT_
000000010281614a t __ZNSt3__16__treeINS_12__value_typeI8AgStringN13GBSaveManager10SaveBufferEEENS_19__map_value_compareIS2_S5_NS_4lessIS2_EELb1EEENS_9allocatorIS5_EEE16__insert_node_atEPNS_16__tree_node_baseIPvEERSG_SG_
0000000102816078 t __ZNSt3__16__treeINS_12__value_typeI8AgStringN13GBSaveManager10SaveBufferEEENS_19__map_value_compareIS2_S5_NS_4lessIS2_EELb1EEENS_9allocatorIS5_EEE20__node_insert_uniqueEPNS_11__tree_nodeIS5_PvEE
0000000102815ee8 t __ZNSt3__16__treeINS_12__value_typeI8AgStringN13GBSaveManager10SaveBufferEEENS_19__map_value_compareIS2_S5_NS_4lessIS2_EELb1EEENS_9allocatorIS5_EEE4findIS2_EENS_15__tree_iteratorIS5_PNS_11__tree_nodeIS5_PvEElEERKT_
0000000102815ea4 t __ZNSt3__16__treeINS_12__value_typeI8AgStringN13GBSaveManager10SaveBufferEEENS_19__map_value_compareIS2_S5_NS_4lessIS2_EELb1EEENS_9allocatorIS5_EEE7destroyEPNS_11__tree_nodeIS5_PvEE
0000000102929dda t __ZNSt3__16__treeINS_12__value_typeI8AgStringN35AgPlatformResourceShaderProgramBase14ParameterEntryEEENS_19__map_value_compareIS2_S5_NS_4lessIS2_EELb1EEENS_9allocatorIS5_EEE12__find_equalIS5_EERPNS_16__tree_node_baseIPvEESI_RKT_
0000000102929c80 t __ZNSt3__16__treeINS_12__value_typeI8AgStringN35AgPlatformResourceShaderProgramBase14ParameterEntryEEENS_19__map_value_compareIS2_S5_NS_4lessIS2_EELb1EEENS_9allocatorIS5_EEE15__insert_uniqueINS_4pairIKS2_S4_EEEENSE_INS_15__tree_iteratorIS5_PNS_11__tree_nodeIS5_PvEElEEbEEOT_
0000000102929d1e t __ZNSt3__16__treeINS_12__value_typeI8AgStringN35AgPlatformResourceShaderProgramBase14ParameterEntryEEENS_19__map_value_compareIS2_S5_NS_4lessIS2_EELb1EEENS_9allocatorIS5_EEE16__construct_nodeIJNS_4pairIKS2_S4_EEEEENS_10unique_ptrINS_11__tree_nodeIS5_PvEENS_22__tree_node_destructorINSA_ISK_EEEEEEDpOT_
0000000102929e5e t __ZNSt3__16__treeINS_12__value_typeI8AgStringN35AgPlatformResourceShaderProgramBase14ParameterEntryEEENS_19__map_value_compareIS2_S5_NS_4lessIS2_EELb1EEENS_9allocatorIS5_EEE16__insert_node_atEPNS_16__tree_node_baseIPvEERSG_SG_
0000000102929d8c t __ZNSt3__16__treeINS_12__value_typeI8AgStringN35AgPlatformResourceShaderProgramBase14ParameterEntryEEENS_19__map_value_compareIS2_S5_NS_4lessIS2_EELb1EEENS_9allocatorIS5_EEE20__node_insert_uniqueEPNS_11__tree_nodeIS5_PvEE
0000000102929c0c t __ZNSt3__16__treeINS_12__value_typeI8AgStringN35AgPlatformResourceShaderProgramBase14ParameterEntryEEENS_19__map_value_compareIS2_S5_NS_4lessIS2_EELb1EEENS_9allocatorIS5_EEE4findIS2_EENS_15__tree_iteratorIS5_PNS_11__tree_nodeIS5_PvEElEERKT_
0000000102879c1a t __ZNSt3__16__treeINS_12__value_typeI8AgStringN35AgPlatformResourceShaderProgramBase14ParameterEntryEEENS_19__map_value_compareIS2_S5_NS_4lessIS2_EELb1EEENS_9allocatorIS5_EEE7destroyEPNS_11__tree_nodeIS5_PvEE
0000000102923aec t __ZNSt3__16__treeINS_12__value_typeI8AgStringN9AgArchive12ArchiveEntryEEENS_19__map_value_compareIS2_S5_19AgArchiveMapCompareLb1EEENS_9allocatorIS5_EEE12__find_equalIS5_EERPNS_16__tree_node_baseIPvEESH_RKT_
0000000102923942 t __ZNSt3__16__treeINS_12__value_typeI8AgStringN9AgArchive12ArchiveEntryEEENS_19__map_value_compareIS2_S5_19AgArchiveMapCompareLb1EEENS_9allocatorIS5_EEE15__insert_uniqueINS_4pairIS2_S4_EEEENSD_INS_15__tree_iteratorIS5_PNS_11__tree_nodeIS5_PvEElEEbEEOT_
00000001029239fc t __ZNSt3__16__treeINS_12__value_typeI8AgStringN9AgArchive12ArchiveEntryEEENS_19__map_value_compareIS2_S5_19AgArchiveMapCompareLb1EEENS_9allocatorIS5_EEE16__construct_nodeIJNS_4pairIS2_S4_EEEEENS_10unique_ptrINS_11__tree_nodeIS5_PvEENS_22__tree_node_destructorINS9_ISI_EEEEEEDpOT_
0000000102923b88 t __ZNSt3__16__treeINS_12__value_typeI8AgStringN9AgArchive12ArchiveEntryEEENS_19__map_value_compareIS2_S5_19AgArchiveMapCompareLb1EEENS_9allocatorIS5_EEE16__insert_node_atEPNS_16__tree_node_baseIPvEERSF_SF_
0000000102923a9e t __ZNSt3__16__treeINS_12__value_typeI8AgStringN9AgArchive12ArchiveEntryEEENS_19__map_value_compareIS2_S5_19AgArchiveMapCompareLb1EEENS_9allocatorIS5_EEE20__node_insert_uniqueEPNS_11__tree_nodeIS5_PvEE
000000010292406a t __ZNSt3__16__treeINS_12__value_typeI8AgStringN9AgArchive12ArchiveEntryEEENS_19__map_value_compareIS2_S5_19AgArchiveMapCompareLb1EEENS_9allocatorIS5_EEE4findIS2_EENS_15__tree_iteratorIS5_PNS_11__tree_nodeIS5_PvEElEERKT_
00000001029237de t __ZNSt3__16__treeINS_12__value_typeI8AgStringN9AgArchive12ArchiveEntryEEENS_19__map_value_compareIS2_S5_19AgArchiveMapCompareLb1EEENS_9allocatorIS5_EEE7destroyEPNS_11__tree_nodeIS5_PvEE
0000000102923d82 t __ZNSt3__16__treeINS_12__value_typeI8AgStringNS_6vectorIN9AgArchive14DirectoryEntryENS_9allocatorIS5_EEEEEENS_19__map_value_compareIS2_S9_19AgArchiveMapCompareLb1EEENS6_IS9_EEE12__find_equalIS9_EERPNS_16__tree_node_baseIPvEESK_RKT_
0000000102923bd8 t __ZNSt3__16__treeINS_12__value_typeI8AgStringNS_6vectorIN9AgArchive14DirectoryEntryENS_9allocatorIS5_EEEEEENS_19__map_value_compareIS2_S9_19AgArchiveMapCompareLb1EEENS6_IS9_EEE15__insert_uniqueINS_4pairIS2_S8_EEEENSG_INS_15__tree_iteratorIS9_PNS_11__tree_nodeIS9_PvEElEEbEEOT_
0000000102923c92 t __ZNSt3__16__treeINS_12__value_typeI8AgStringNS_6vectorIN9AgArchive14DirectoryEntryENS_9allocatorIS5_EEEEEENS_19__map_value_compareIS2_S9_19AgArchiveMapCompareLb1EEENS6_IS9_EEE16__construct_nodeIJNS_4pairIS2_S8_EEEEENS_10unique_ptrINS_11__tree_nodeIS9_PvEENS_22__tree_node_destructorINS6_ISL_EEEEEEDpOT_
0000000102923e1e t __ZNSt3__16__treeINS_12__value_typeI8AgStringNS_6vectorIN9AgArchive14DirectoryEntryENS_9allocatorIS5_EEEEEENS_19__map_value_compareIS2_S9_19AgArchiveMapCompareLb1EEENS6_IS9_EEE16__insert_node_atEPNS_16__tree_node_baseIPvEERSI_SI_
0000000102923d34 t __ZNSt3__16__treeINS_12__value_typeI8AgStringNS_6vectorIN9AgArchive14DirectoryEntryENS_9allocatorIS5_EEEEEENS_19__map_value_compareIS2_S9_19AgArchiveMapCompareLb1EEENS6_IS9_EEE20__node_insert_uniqueEPNS_11__tree_nodeIS9_PvEE
0000000102923878 t __ZNSt3__16__treeINS_12__value_typeI8AgStringNS_6vectorIN9AgArchive14DirectoryEntryENS_9allocatorIS5_EEEEEENS_19__map_value_compareIS2_S9_19AgArchiveMapCompareLb1EEENS6_IS9_EEE4findIS2_EENS_15__tree_iteratorIS9_PNS_11__tree_nodeIS9_PvEElEERKT_
000000010292378e t __ZNSt3__16__treeINS_12__value_typeI8AgStringNS_6vectorIN9AgArchive14DirectoryEntryENS_9allocatorIS5_EEEEEENS_19__map_value_compareIS2_S9_19AgArchiveMapCompareLb1EEENS6_IS9_EEE7destroyEPNS_11__tree_nodeIS9_PvEE
0000000102844476 t __ZNSt3__16__treeINS_12__value_typeI8AgStringiEENS_19__map_value_compareIS2_S3_NS_4lessIS2_EELb1EEENS_9allocatorIS3_EEE16__insert_node_atEPNS_16__tree_node_baseIPvEERSE_SE_
0000000102844316 t __ZNSt3__16__treeINS_12__value_typeI8AgStringiEENS_19__map_value_compareIS2_S3_NS_4lessIS2_EELb1EEENS_9allocatorIS3_EEE4findIS2_EENS_15__tree_iteratorIS3_PNS_11__tree_nodeIS3_PvEElEERKT_
00000001028444c0 t __ZNSt3__16__treeINS_12__value_typeI8AgStringiEENS_19__map_value_compareIS2_S3_NS_4lessIS2_EELb1EEENS_9allocatorIS3_EEE5eraseENS_21__tree_const_iteratorIS3_PNS_11__tree_nodeIS3_PvEElEE
0000000102842c24 t __ZNSt3__16__treeINS_12__value_typeI8AgStringiEENS_19__map_value_compareIS2_S3_NS_4lessIS2_EELb1EEENS_9allocatorIS3_EEE7destroyEPNS_11__tree_nodeIS3_PvEE
00000001028b9f42 t __ZNSt3__16__treeINS_12__value_typeI8AgStringjEENS_19__map_value_compareIS2_S3_NS_4lessIS2_EELb1EEENS_9allocatorIS3_EEE12__find_equalIS3_EERPNS_16__tree_node_baseIPvEESG_RKT_
00000001028b9de8 t __ZNSt3__16__treeINS_12__value_typeI8AgStringjEENS_19__map_value_compareIS2_S3_NS_4lessIS2_EELb1EEENS_9allocatorIS3_EEE15__insert_uniqueINS_4pairIS2_jEEEENSC_INS_15__tree_iteratorIS3_PNS_11__tree_nodeIS3_PvEElEEbEEOT_
00000001028b9e86 t __ZNSt3__16__treeINS_12__value_typeI8AgStringjEENS_19__map_value_compareIS2_S3_NS_4lessIS2_EELb1EEENS_9allocatorIS3_EEE16__construct_nodeIJNS_4pairIS2_jEEEEENS_10unique_ptrINS_11__tree_nodeIS3_PvEENS_22__tree_node_destructorINS8_ISH_EEEEEEDpOT_
000000010287a170 t __ZNSt3__16__treeINS_12__value_typeI8AgStringjEENS_19__map_value_compareIS2_S3_NS_4lessIS2_EELb1EEENS_9allocatorIS3_EEE16__insert_node_atEPNS_16__tree_node_baseIPvEERSE_SE_
00000001028b9ef4 t __ZNSt3__16__treeINS_12__value_typeI8AgStringjEENS_19__map_value_compareIS2_S3_NS_4lessIS2_EELb1EEENS_9allocatorIS3_EEE20__node_insert_uniqueEPNS_11__tree_nodeIS3_PvEE
00000001028b989e t __ZNSt3__16__treeINS_12__value_typeI8AgStringjEENS_19__map_value_compareIS2_S3_NS_4lessIS2_EELb1EEENS_9allocatorIS3_EEE7destroyEPNS_11__tree_nodeIS3_PvEE
00000001028b9a54 t __ZNSt3__16__treeINS_12__value_typeIN8AgLocale14SystemLanguageEjEENS_19__map_value_compareIS3_S4_NS_4lessIS3_EELb1EEENS_9allocatorIS4_EEE12__find_equalIS4_EERPNS_16__tree_node_baseIPvEESH_RKT_
00000001028b99ac t __ZNSt3__16__treeINS_12__value_typeIN8AgLocale14SystemLanguageEjEENS_19__map_value_compareIS3_S4_NS_4lessIS3_EELb1EEENS_9allocatorIS4_EEE15__insert_uniqueINS_4pairIS3_jEEEENSD_INS_15__tree_iteratorIS4_PNS_11__tree_nodeIS4_PvEElEEbEEOT_
00000001028b9aae t __ZNSt3__16__treeINS_12__value_typeIN8AgLocale14SystemLanguageEjEENS_19__map_value_compareIS3_S4_NS_4lessIS3_EELb1EEENS_9allocatorIS4_EEE16__insert_node_atEPNS_16__tree_node_baseIPvEERSF_SF_
00000001028b9a06 t __ZNSt3__16__treeINS_12__value_typeIN8AgLocale14SystemLanguageEjEENS_19__map_value_compareIS3_S4_NS_4lessIS3_EELb1EEENS_9allocatorIS4_EEE20__node_insert_uniqueEPNS_11__tree_nodeIS4_PvEE
00000001028b9850 t __ZNSt3__16__treeINS_12__value_typeIN8AgLocale14SystemLanguageEjEENS_19__map_value_compareIS3_S4_NS_4lessIS3_EELb1EEENS_9allocatorIS4_EEE7destroyEPNS_11__tree_nodeIS4_PvEE
0000000102931438 t __ZNSt3__16__treeINS_12__value_typeINS_12basic_stringIcNS_11char_traitsIcEENS_9allocatorIcEEEE26AgControllerComponentIndexEENS_19__map_value_compareIS7_S9_NS_4lessIS7_EELb1EEENS5_IS9_EEE16__insert_node_atEPNS_16__tree_node_baseIPvEERSJ_SJ_
000000010292f936 t __ZNSt3__16__treeINS_12__value_typeINS_12basic_stringIcNS_11char_traitsIcEENS_9allocatorIcEEEE26AgControllerComponentIndexEENS_19__map_value_compareIS7_S9_NS_4lessIS7_EELb1EEENS5_IS9_EEE7destroyEPNS_11__tree_nodeIS9_PvEE
00000001028ece5c t __ZNSt3__16__treeINS_12__value_typeINS_12basic_stringIcNS_11char_traitsIcEENS_9allocatorIcEEEEP5FITAGEENS_19__map_value_compareIS7_SA_NS_4lessIS7_EELb1EEENS5_ISA_EEE13__lower_boundIS7_EENS_15__tree_iteratorISA_PNS_11__tree_nodeISA_PvEElEERKT_SM_SM_
00000001028ecf30 t __ZNSt3__16__treeINS_12__value_typeINS_12basic_stringIcNS_11char_traitsIcEENS_9allocatorIcEEEEP5FITAGEENS_19__map_value_compareIS7_SA_NS_4lessIS7_EELb1EEENS5_ISA_EEE14__erase_uniqueIS7_EEmRKT_
00000001028ecc82 t __ZNSt3__16__treeINS_12__value_typeINS_12basic_stringIcNS_11char_traitsIcEENS_9allocatorIcEEEEP5FITAGEENS_19__map_value_compareIS7_SA_NS_4lessIS7_EELb1EEENS5_ISA_EEE16__insert_node_atEPNS_16__tree_node_baseIPvEERSK_SK_
00000001028ecdb4 t __ZNSt3__16__treeINS_12__value_typeINS_12basic_stringIcNS_11char_traitsIcEENS_9allocatorIcEEEEP5FITAGEENS_19__map_value_compareIS7_SA_NS_4lessIS7_EELb1EEENS5_ISA_EEE4findIS7_EENS_15__tree_iteratorISA_PNS_11__tree_nodeISA_PvEElEERKT_
00000001028ecf64 t __ZNSt3__16__treeINS_12__value_typeINS_12basic_stringIcNS_11char_traitsIcEENS_9allocatorIcEEEEP5FITAGEENS_19__map_value_compareIS7_SA_NS_4lessIS7_EELb1EEENS5_ISA_EEE5eraseENS_21__tree_const_iteratorISA_PNS_11__tree_nodeISA_PvEElEE
00000001028eca1a t __ZNSt3__16__treeINS_12__value_typeINS_12basic_stringIcNS_11char_traitsIcEENS_9allocatorIcEEEEP5FITAGEENS_19__map_value_compareIS7_SA_NS_4lessIS7_EELb1EEENS5_ISA_EEE7destroyEPNS_11__tree_nodeISA_PvEE
00000001027cf606 t __ZNSt3__16__treeINS_12__value_typeINS_12basic_stringIcNS_11char_traitsIcEENS_9allocatorIcEEEEiEENS_19__map_value_compareIS7_S8_NS_4lessIS7_EELb1EEENS5_IS8_EEE13__lower_boundIS7_EENS_15__tree_iteratorIS8_PNS_11__tree_nodeIS8_PvEElEERKT_SK_SK_
00000001027cf50e t __ZNSt3__16__treeINS_12__value_typeINS_12basic_stringIcNS_11char_traitsIcEENS_9allocatorIcEEEEiEENS_19__map_value_compareIS7_S8_NS_4lessIS7_EELb1EEENS5_IS8_EEE16__insert_node_atEPNS_16__tree_node_baseIPvEERSI_SI_
00000001027cf55e t __ZNSt3__16__treeINS_12__value_typeINS_12basic_stringIcNS_11char_traitsIcEENS_9allocatorIcEEEEiEENS_19__map_value_compareIS7_S8_NS_4lessIS7_EELb1EEENS5_IS8_EEE4findIS7_EENS_15__tree_iteratorIS8_PNS_11__tree_nodeIS8_PvEElEERKT_
00000001027cf348 t __ZNSt3__16__treeINS_12__value_typeINS_12basic_stringIcNS_11char_traitsIcEENS_9allocatorIcEEEEiEENS_19__map_value_compareIS7_S8_NS_4lessIS7_EELb1EEENS5_IS8_EEE7destroyEPNS_11__tree_nodeIS8_PvEE
00000001028bee2c t __ZNSt3__16__treeINS_12__value_typeIP13AgAudioSource9AgPointerIS2_EEENS_19__map_value_compareIS3_S6_NS_4lessIS3_EELb1EEENS_9allocatorIS6_EEE16__insert_node_atEPNS_16__tree_node_baseIPvEERSH_SH_
00000001028bee74 t __ZNSt3__16__treeINS_12__value_typeIP13AgAudioSource9AgPointerIS2_EEENS_19__map_value_compareIS3_S6_NS_4lessIS3_EELb1EEENS_9allocatorIS6_EEE4findIS3_EENS_15__tree_iteratorIS6_PNS_11__tree_nodeIS6_PvEElEERKT_
00000001028beec0 t __ZNSt3__16__treeINS_12__value_typeIP13AgAudioSource9AgPointerIS2_EEENS_19__map_value_compareIS3_S6_NS_4lessIS3_EELb1EEENS_9allocatorIS6_EEE5eraseENS_21__tree_const_iteratorIS6_PNS_11__tree_nodeIS6_PvEElEE
0000000102934e38 t __ZNSt3__16__treeINS_12__value_typeIP13AgAudioSource9AgPointerIS2_EEENS_19__map_value_compareIS3_S6_NS_4lessIS3_EELb1EEENS_9allocatorIS6_EEE7destroyEPNS_11__tree_nodeIS6_PvEE
00000001028bec3e t __ZNSt3__16__treeINS_12__value_typeIP14AgAudioChannel9AgPointerIS2_EEENS_19__map_value_compareIS3_S6_NS_4lessIS3_EELb1EEENS_9allocatorIS6_EEE12__find_equalIS6_EERPNS_16__tree_node_baseIPvEESJ_RKT_
00000001028be9a8 t __ZNSt3__16__treeINS_12__value_typeIP14AgAudioChannel9AgPointerIS2_EEENS_19__map_value_compareIS3_S6_NS_4lessIS3_EELb1EEENS_9allocatorIS6_EEE15__insert_uniqueINS_4pairIS3_S5_EEEENSF_INS_15__tree_iteratorIS6_PNS_11__tree_nodeIS6_PvEElEEbEEOT_
00000001028bea9e t __ZNSt3__16__treeINS_12__value_typeIP14AgAudioChannel9AgPointerIS2_EEENS_19__map_value_compareIS3_S6_NS_4lessIS3_EELb1EEENS_9allocatorIS6_EEE16__construct_nodeIJNS_4pairIS3_S5_EEEEENS_10unique_ptrINS_11__tree_nodeIS6_PvEENS_22__tree_node_destructorINSB_ISK_EEEEEEDpOT_
00000001028bec9c t __ZNSt3__16__treeINS_12__value_typeIP14AgAudioChannel9AgPointerIS2_EEENS_19__map_value_compareIS3_S6_NS_4lessIS3_EELb1EEENS_9allocatorIS6_EEE16__insert_node_atEPNS_16__tree_node_baseIPvEERSH_SH_
00000001028bebf0 t __ZNSt3__16__treeINS_12__value_typeIP14AgAudioChannel9AgPointerIS2_EEENS_19__map_value_compareIS3_S6_NS_4lessIS3_EELb1EEENS_9allocatorIS6_EEE20__node_insert_uniqueEPNS_11__tree_nodeIS6_PvEE
00000001028becec t __ZNSt3__16__treeINS_12__value_typeIP14AgAudioChannel9AgPointerIS2_EEENS_19__map_value_compareIS3_S6_NS_4lessIS3_EELb1EEENS_9allocatorIS6_EEE5eraseENS_21__tree_const_iteratorIS6_PNS_11__tree_nodeIS6_PvEElEE
00000001028be742 t __ZNSt3__16__treeINS_12__value_typeIP14AgAudioChannel9AgPointerIS2_EEENS_19__map_value_compareIS3_S6_NS_4lessIS3_EELb1EEENS_9allocatorIS6_EEE7destroyEPNS_11__tree_nodeIS6_PvEE
000000010293d764 t __ZNSt3__16__treeINS_12__value_typeIP19_SDL_GameController9AgPointerI12AgControllerEEENS_19__map_value_compareIS3_S7_NS_4lessIS3_EELb1EEENS_9allocatorIS7_EEE14__erase_uniqueIS3_EEmRKT_
000000010293d714 t __ZNSt3__16__treeINS_12__value_typeIP19_SDL_GameController9AgPointerI12AgControllerEEENS_19__map_value_compareIS3_S7_NS_4lessIS3_EELb1EEENS_9allocatorIS7_EEE16__insert_node_atEPNS_16__tree_node_baseIPvEERSI_SI_
000000010293d798 t __ZNSt3__16__treeINS_12__value_typeIP19_SDL_GameController9AgPointerI12AgControllerEEENS_19__map_value_compareIS3_S7_NS_4lessIS3_EELb1EEENS_9allocatorIS7_EEE4findIS3_EENS_15__tree_iteratorIS7_PNS_11__tree_nodeIS7_PvEElEERKT_
000000010293d7e4 t __ZNSt3__16__treeINS_12__value_typeIP19_SDL_GameController9AgPointerI12AgControllerEEENS_19__map_value_compareIS3_S7_NS_4lessIS3_EELb1EEENS_9allocatorIS7_EEE5eraseENS_21__tree_const_iteratorIS7_PNS_11__tree_nodeIS7_PvEElEE
000000010293d4be t __ZNSt3__16__treeINS_12__value_typeIP19_SDL_GameController9AgPointerI12AgControllerEEENS_19__map_value_compareIS3_S7_NS_4lessIS3_EELb1EEENS_9allocatorIS7_EEE7destroyEPNS_11__tree_nodeIS7_PvEE
00000001028b3dbe t __ZNSt3__16__treeINS_12__value_typeIP9AgDisplay9AgPointerIS2_EEENS_19__map_value_compareIS3_S6_NS_4lessIS3_EELb1EEENS_9allocatorIS6_EEE14__erase_uniqueIS3_EEmRKT_
00000001028b3d6e t __ZNSt3__16__treeINS_12__value_typeIP9AgDisplay9AgPointerIS2_EEENS_19__map_value_compareIS3_S6_NS_4lessIS3_EELb1EEENS_9allocatorIS6_EEE16__insert_node_atEPNS_16__tree_node_baseIPvEERSH_SH_
00000001028b3cc4 t __ZNSt3__16__treeINS_12__value_typeIP9AgDisplay9AgPointerIS2_EEENS_19__map_value_compareIS3_S6_NS_4lessIS3_EELb1EEENS_9allocatorIS6_EEE4findIS3_EENS_15__tree_iteratorIS6_PNS_11__tree_nodeIS6_PvEElEERKT_
00000001028b3df2 t __ZNSt3__16__treeINS_12__value_typeIP9AgDisplay9AgPointerIS2_EEENS_19__map_value_compareIS3_S6_NS_4lessIS3_EELb1EEENS_9allocatorIS6_EEE5eraseENS_21__tree_const_iteratorIS6_PNS_11__tree_nodeIS6_PvEElEE
00000001028b3bfe t __ZNSt3__16__treeINS_12__value_typeIP9AgDisplay9AgPointerIS2_EEENS_19__map_value_compareIS3_S6_NS_4lessIS3_EELb1EEENS_9allocatorIS6_EEE7destroyEPNS_11__tree_nodeIS6_PvEE
000000010285221e t __ZNSt3__16__treeINS_12__value_typeIi15ReservedSurfaceEENS_19__map_value_compareIiS3_NS_4lessIiEELb1EEENS_9allocatorIS3_EEE16__insert_node_atEPNS_16__tree_node_baseIPvEERSE_SE_
0000000102851cb2 t __ZNSt3__16__treeINS_12__value_typeIi15ReservedSurfaceEENS_19__map_value_compareIiS3_NS_4lessIiEELb1EEENS_9allocatorIS3_EEE7destroyEPNS_11__tree_nodeIS3_PvEE
000000010287a3f8 t __ZNSt3__16__treeINS_12__value_typeIiN29AgResourceShaderProgramOpenGL18ParameterConstantsEEENS_19__map_value_compareIiS4_NS_4lessIiEELb1EEENS_9allocatorIS4_EEE16__insert_node_atEPNS_16__tree_node_baseIPvEERSF_SF_
000000010287a440 t __ZNSt3__16__treeINS_12__value_typeIiN29AgResourceShaderProgramOpenGL18ParameterConstantsEEENS_19__map_value_compareIiS4_NS_4lessIiEELb1EEENS_9allocatorIS4_EEE4findIiEENS_15__tree_iteratorIS4_PNS_11__tree_nodeIS4_PvEElEERKT_
00000001028799ee t __ZNSt3__16__treeINS_12__value_typeIiN29AgResourceShaderProgramOpenGL18ParameterConstantsEEENS_19__map_value_compareIiS4_NS_4lessIiEELb1EEENS_9allocatorIS4_EEE7destroyEPNS_11__tree_nodeIS4_PvEE
000000010280b8e2 t __ZNSt3__16__treeINS_12__value_typeIiN8TileGrid8GridTileEEENS_19__map_value_compareIiS4_NS_4lessIiEELb1EEENS_9allocatorIS4_EEE12__find_equalIS4_EERPNS_16__tree_node_baseIPvEESH_RKT_
000000010280b7e6 t __ZNSt3__16__treeINS_12__value_typeIiN8TileGrid8GridTileEEENS_19__map_value_compareIiS4_NS_4lessIiEELb1EEENS_9allocatorIS4_EEE15__insert_uniqueINS_4pairIiS3_EEEENSD_INS_15__tree_iteratorIS4_PNS_11__tree_nodeIS4_PvEElEEbEEOT_
000000010280b93c t __ZNSt3__16__treeINS_12__value_typeIiN8TileGrid8GridTileEEENS_19__map_value_compareIiS4_NS_4lessIiEELb1EEENS_9allocatorIS4_EEE16__insert_node_atEPNS_16__tree_node_baseIPvEERSF_SF_
000000010280b894 t __ZNSt3__16__treeINS_12__value_typeIiN8TileGrid8GridTileEEENS_19__map_value_compareIiS4_NS_4lessIiEELb1EEENS_9allocatorIS4_EEE20__node_insert_uniqueEPNS_11__tree_nodeIS4_PvEE
000000010280bc92 t __ZNSt3__16__treeINS_12__value_typeIiN8TileGrid8GridTileEEENS_19__map_value_compareIiS4_NS_4lessIiEELb1EEENS_9allocatorIS4_EEE4findIiEENS_15__tree_iteratorIS4_PNS_11__tree_nodeIS4_PvEElEERKT_
000000010280bcda t __ZNSt3__16__treeINS_12__value_typeIiN8TileGrid8GridTileEEENS_19__map_value_compareIiS4_NS_4lessIiEELb1EEENS_9allocatorIS4_EEE5eraseENS_21__tree_const_iteratorIS4_PNS_11__tree_nodeIS4_PvEElEE
000000010280b6bc t __ZNSt3__16__treeINS_12__value_typeIiN8TileGrid8GridTileEEENS_19__map_value_compareIiS4_NS_4lessIiEELb1EEENS_9allocatorIS4_EEE7destroyEPNS_11__tree_nodeIS4_PvEE
0000000102879efe t __ZNSt3__16__treeINS_12__value_typeIiNS_6vectorIfNS_9allocatorIfEEEEEENS_19__map_value_compareIiS6_NS_4lessIiEELb1EEENS3_IS6_EEE12__find_equalIS6_EERPNS_16__tree_node_baseIPvEENS_21__tree_const_iteratorIS6_PNS_11__tree_nodeIS6_SF_EElEESI_RKT_
000000010287a014 t __ZNSt3__16__treeINS_12__value_typeIiNS_6vectorIfNS_9allocatorIfEEEEEENS_19__map_value_compareIiS6_NS_4lessIiEELb1EEENS3_IS6_EEE12__find_equalIS6_EERPNS_16__tree_node_baseIPvEESI_RKT_
0000000102879d14 t __ZNSt3__16__treeINS_12__value_typeIiNS_6vectorIfNS_9allocatorIfEEEEEENS_19__map_value_compareIiS6_NS_4lessIiEELb1EEENS3_IS6_EEE15__insert_uniqueIRKNS_4pairIKiS5_EEEENS_15__tree_iteratorIS6_PNS_11__tree_nodeIS6_PvEElEENS_21__tree_const_iteratorIS6_SN_lEEOT_
0000000102879d8a t __ZNSt3__16__treeINS_12__value_typeIiNS_6vectorIfNS_9allocatorIfEEEEEENS_19__map_value_compareIiS6_NS_4lessIiEELb1EEENS3_IS6_EEE16__construct_nodeIJRKNS_4pairIKiS5_EEEEENS_10unique_ptrINS_11__tree_nodeIS6_PvEENS_22__tree_node_destructorINS3_ISM_EEEEEEDpOT_
0000000102879fcc t __ZNSt3__16__treeINS_12__value_typeIiNS_6vectorIfNS_9allocatorIfEEEEEENS_19__map_value_compareIiS6_NS_4lessIiEELb1EEENS3_IS6_EEE16__insert_node_atEPNS_16__tree_node_baseIPvEERSG_SG_
0000000102879e06 t __ZNSt3__16__treeINS_12__value_typeIiNS_6vectorIfNS_9allocatorIfEEEEEENS_19__map_value_compareIiS6_NS_4lessIiEELb1EEENS3_IS6_EEE20__node_insert_uniqueENS_21__tree_const_iteratorIS6_PNS_11__tree_nodeIS6_PvEElEESH_
000000010287a1b8 t __ZNSt3__16__treeINS_12__value_typeIiNS_6vectorIfNS_9allocatorIfEEEEEENS_19__map_value_compareIiS6_NS_4lessIiEELb1EEENS3_IS6_EEE4findIiEENS_15__tree_iteratorIS6_PNS_11__tree_nodeIS6_PvEElEERKT_
0000000102879a36 t __ZNSt3__16__treeINS_12__value_typeIiNS_6vectorIfNS_9allocatorIfEEEEEENS_19__map_value_compareIiS6_NS_4lessIiEELb1EEENS3_IS6_EEE7destroyEPNS_11__tree_nodeIS6_PvEE
00000001028c019c t __ZNSt3__16__treeINS_12__value_typeIiP10PluginNodeEENS_19__map_value_compareIiS4_NS_4lessIiEELb1EEENS_9allocatorIS4_EEE16__insert_node_atEPNS_16__tree_node_baseIPvEERSF_SF_
00000001028c01e4 t __ZNSt3__16__treeINS_12__value_typeIiP10PluginNodeEENS_19__map_value_compareIiS4_NS_4lessIiEELb1EEENS_9allocatorIS4_EEE4findIiEENS_15__tree_iteratorIS4_PNS_11__tree_nodeIS4_PvEElEERKT_
00000001028c0108 t __ZNSt3__16__treeINS_12__value_typeIiP10PluginNodeEENS_19__map_value_compareIiS4_NS_4lessIiEELb1EEENS_9allocatorIS4_EEE7destroyEPNS_11__tree_nodeIS4_PvEE
0000000102807738 t __ZNSt3__16__treeINS_12__value_typeIiPN7TileSet9TileLayerEEENS_19__map_value_compareIiS5_NS_4lessIiEELb1EEENS_9allocatorIS5_EEE12__find_equalIS5_EERPNS_16__tree_node_baseIPvEESI_RKT_
000000010280768e t __ZNSt3__16__treeINS_12__value_typeIiPN7TileSet9TileLayerEEENS_19__map_value_compareIiS5_NS_4lessIiEELb1EEENS_9allocatorIS5_EEE15__insert_uniqueINS_4pairIiS4_EEEENSE_INS_15__tree_iteratorIS5_PNS_11__tree_nodeIS5_PvEElEEbEEOT_
0000000102807792 t __ZNSt3__16__treeINS_12__value_typeIiPN7TileSet9TileLayerEEENS_19__map_value_compareIiS5_NS_4lessIiEELb1EEENS_9allocatorIS5_EEE16__insert_node_atEPNS_16__tree_node_baseIPvEERSG_SG_
00000001028076ea t __ZNSt3__16__treeINS_12__value_typeIiPN7TileSet9TileLayerEEENS_19__map_value_compareIiS5_NS_4lessIiEELb1EEENS_9allocatorIS5_EEE20__node_insert_uniqueEPNS_11__tree_nodeIS5_PvEE
00000001028077e2 t __ZNSt3__16__treeINS_12__value_typeIiPN7TileSet9TileLayerEEENS_19__map_value_compareIiS5_NS_4lessIiEELb1EEENS_9allocatorIS5_EEE4findIiEENS_15__tree_iteratorIS5_PNS_11__tree_nodeIS5_PvEElEERKT_
0000000102807934 t __ZNSt3__16__treeINS_12__value_typeIiPN7TileSet9TileLayerEEENS_19__map_value_compareIiS5_NS_4lessIiEELb1EEENS_9allocatorIS5_EEE5eraseENS_21__tree_const_iteratorIS5_PNS_11__tree_nodeIS5_PvEElEE
000000010280735a t __ZNSt3__16__treeINS_12__value_typeIiPN7TileSet9TileLayerEEENS_19__map_value_compareIiS5_NS_4lessIiEELb1EEENS_9allocatorIS5_EEE7destroyEPNS_11__tree_nodeIS5_PvEE
00000001028ecd24 t __ZNSt3__16__treeINS_12__value_typeIiPNS_3mapINS_12basic_stringIcNS_11char_traitsIcEENS_9allocatorIcEEEEP5FITAGNS_4lessIS8_EENS6_INS_4pairIKS8_SA_EEEEEEEENS_19__map_value_compareIiSJ_NSB_IiEELb1EEENS6_ISJ_EEE16__insert_node_atEPNS_16__tree_node_baseIPvEERSS_SS_
00000001028ecd6c t __ZNSt3__16__treeINS_12__value_typeIiPNS_3mapINS_12basic_stringIcNS_11char_traitsIcEENS_9allocatorIcEEEEP5FITAGNS_4lessIS8_EENS6_INS_4pairIKS8_SA_EEEEEEEENS_19__map_value_compareIiSJ_NSB_IiEELb1EEENS6_ISJ_EEE4findIiEENS_15__tree_iteratorISJ_PNS_11__tree_nodeISJ_PvEElEERKT_
00000001028ecfc4 t __ZNSt3__16__treeINS_12__value_typeIiPNS_3mapINS_12basic_stringIcNS_11char_traitsIcEENS_9allocatorIcEEEEP5FITAGNS_4lessIS8_EENS6_INS_4pairIKS8_SA_EEEEEEEENS_19__map_value_compareIiSJ_NSB_IiEELb1EEENS6_ISJ_EEE5eraseENS_21__tree_const_iteratorISJ_PNS_11__tree_nodeISJ_PvEElEE
00000001028eca5e t __ZNSt3__16__treeINS_12__value_typeIiPNS_3mapINS_12basic_stringIcNS_11char_traitsIcEENS_9allocatorIcEEEEP5FITAGNS_4lessIS8_EENS6_INS_4pairIKS8_SA_EEEEEEEENS_19__map_value_compareIiSJ_NSB_IiEELb1EEENS6_ISJ_EEE7destroyEPNS_11__tree_nodeISJ_PvEE
00000001028e76e2 t __ZNSt3__16__treeINS_12__value_typeIiPNS_3mapItP10tagTagInfoNS_4lessItEENS_9allocatorINS_4pairIKtS4_EEEEEEEENS_19__map_value_compareIiSE_NS5_IiEELb1EEENS7_ISE_EEE16__insert_node_atEPNS_16__tree_node_baseIPvEERSN_SN_
00000001028e7596 t __ZNSt3__16__treeINS_12__value_typeIiPNS_3mapItP10tagTagInfoNS_4lessItEENS_9allocatorINS_4pairIKtS4_EEEEEEEENS_19__map_value_compareIiSE_NS5_IiEELb1EEENS7_ISE_EEE4findIiEENS_15__tree_iteratorISE_PNS_11__tree_nodeISE_PvEElEERKT_
00000001028e7522 t __ZNSt3__16__treeINS_12__value_typeIiPNS_3mapItP10tagTagInfoNS_4lessItEENS_9allocatorINS_4pairIKtS4_EEEEEEEENS_19__map_value_compareIiSE_NS5_IiEELb1EEENS7_ISE_EEE7destroyEPNS_11__tree_nodeISE_PvEE
0000000102929852 t __ZNSt3__16__treeINS_12__value_typeIj8AgStringEENS_19__map_value_compareIjS3_NS_4lessIjEELb1EEENS_9allocatorIS3_EEE14__assign_multiINS_21__tree_const_iteratorIS3_PNS_11__tree_nodeIS3_PvEElEEEEvT_SI_
0000000102929ac2 t __ZNSt3__16__treeINS_12__value_typeIj8AgStringEENS_19__map_value_compareIjS3_NS_4lessIjEELb1EEENS_9allocatorIS3_EEE14__insert_multiERKS3_
0000000102929b90 t __ZNSt3__16__treeINS_12__value_typeIj8AgStringEENS_19__map_value_compareIjS3_NS_4lessIjEELb1EEENS_9allocatorIS3_EEE16__construct_nodeIJRKS3_EEENS_10unique_ptrINS_11__tree_nodeIS3_PvEENS_22__tree_node_destructorINS8_ISH_EEEEEEDpOT_
0000000102929b40 t __ZNSt3__16__treeINS_12__value_typeIj8AgStringEENS_19__map_value_compareIjS3_NS_4lessIjEELb1EEENS_9allocatorIS3_EEE16__insert_node_atEPNS_16__tree_node_baseIPvEERSE_SE_
0000000102929a2c t __ZNSt3__16__treeINS_12__value_typeIj8AgStringEENS_19__map_value_compareIjS3_NS_4lessIjEELb1EEENS_9allocatorIS3_EEE19__node_insert_multiEPNS_11__tree_nodeIS3_PvEE
0000000102929a7e t __ZNSt3__16__treeINS_12__value_typeIj8AgStringEENS_19__map_value_compareIjS3_NS_4lessIjEELb1EEENS_9allocatorIS3_EEE7destroyEPNS_11__tree_nodeIS3_PvEE
00000001029299c6 t __ZNSt3__16__treeINS_12__value_typeIj8AgStringEENS_19__map_value_compareIjS3_NS_4lessIjEELb1EEENS_9allocatorIS3_EEE8__detachEPNS_11__tree_nodeIS3_PvEE
00000001028772ee t __ZNSt3__16__treeINS_12__value_typeIj9AgPointerI11AgTexture2dEEENS_19__map_value_compareIjS5_NS_4lessIjEELb1EEENS_9allocatorIS5_EEE16__insert_node_atEPNS_16__tree_node_baseIPvEERSG_SG_
000000010287733e t __ZNSt3__16__treeINS_12__value_typeIj9AgPointerI11AgTexture2dEEENS_19__map_value_compareIjS5_NS_4lessIjEELb1EEENS_9allocatorIS5_EEE4findIjEENS_15__tree_iteratorIS5_PNS_11__tree_nodeIS5_PvEElEERKT_
0000000102875556 t __ZNSt3__16__treeINS_12__value_typeIj9AgPointerI11AgTexture2dEEENS_19__map_value_compareIjS5_NS_4lessIjEELb1EEENS_9allocatorIS5_EEE7destroyEPNS_11__tree_nodeIS5_PvEE
0000000102931b3a t __ZNSt3__16__treeINS_12__value_typeIj9AgPointerI12AgControllerEEENS_19__map_value_compareIjS5_NS_4lessIjEELb1EEENS_9allocatorIS5_EEE14__erase_uniqueIjEEmRKT_
0000000102931722 t __ZNSt3__16__treeINS_12__value_typeIj9AgPointerI12AgControllerEEENS_19__map_value_compareIjS5_NS_4lessIjEELb1EEENS_9allocatorIS5_EEE16__insert_node_atEPNS_16__tree_node_baseIPvEERSG_SG_
0000000102931b6e t __ZNSt3__16__treeINS_12__value_typeIj9AgPointerI12AgControllerEEENS_19__map_value_compareIjS5_NS_4lessIjEELb1EEENS_9allocatorIS5_EEE4findIjEENS_15__tree_iteratorIS5_PNS_11__tree_nodeIS5_PvEElEERKT_
0000000102931bb6 t __ZNSt3__16__treeINS_12__value_typeIj9AgPointerI12AgControllerEEENS_19__map_value_compareIjS5_NS_4lessIjEELb1EEENS_9allocatorIS5_EEE5eraseENS_21__tree_const_iteratorIS5_PNS_11__tree_nodeIS5_PvEElEE
000000010292f86c t __ZNSt3__16__treeINS_12__value_typeIj9AgPointerI12AgControllerEEENS_19__map_value_compareIjS5_NS_4lessIjEELb1EEENS_9allocatorIS5_EEE7destroyEPNS_11__tree_nodeIS5_PvEE
0000000102935bd4 t __ZNSt3__16__treeINS_12__value_typeIj9AgPointerI6AgFileEEENS_19__map_value_compareIjS5_NS_4lessIjEELb1EEENS_9allocatorIS5_EEE14__erase_uniqueIjEEmRKT_
0000000102935b84 t __ZNSt3__16__treeINS_12__value_typeIj9AgPointerI6AgFileEEENS_19__map_value_compareIjS5_NS_4lessIjEELb1EEENS_9allocatorIS5_EEE16__insert_node_atEPNS_16__tree_node_baseIPvEERSG_SG_
0000000102935c08 t __ZNSt3__16__treeINS_12__value_typeIj9AgPointerI6AgFileEEENS_19__map_value_compareIjS5_NS_4lessIjEELb1EEENS_9allocatorIS5_EEE4findIjEENS_15__tree_iteratorIS5_PNS_11__tree_nodeIS5_PvEElEERKT_
0000000102935c50 t __ZNSt3__16__treeINS_12__value_typeIj9AgPointerI6AgFileEEENS_19__map_value_compareIjS5_NS_4lessIjEELb1EEENS_9allocatorIS5_EEE5eraseENS_21__tree_const_iteratorIS5_PNS_11__tree_nodeIS5_PvEElEE
0000000102934d5e t __ZNSt3__16__treeINS_12__value_typeIj9AgPointerI6AgFileEEENS_19__map_value_compareIjS5_NS_4lessIjEELb1EEENS_9allocatorIS5_EEE7destroyEPNS_11__tree_nodeIS5_PvEE
0000000102882930 t __ZNSt3__16__treeINS_12__value_typeIjN13AgLeaderboard11RankingDataEEENS_19__map_value_compareIjS4_NS_4lessIjEELb1EEENS_9allocatorIS4_EEE7destroyEPNS_11__tree_nodeIS4_PvEE
000000010291df2a t __ZNSt3__16__treeINS_12__value_typeIjiEENS_19__map_value_compareIjS2_NS_4lessIjEELb1EEENS_9allocatorIS2_EEE16__insert_node_atEPNS_16__tree_node_baseIPvEERSD_SD_
0000000102920082 t __ZNSt3__16__treeINS_12__value_typeIjiEENS_19__map_value_compareIjS2_NS_4lessIjEELb1EEENS_9allocatorIS2_EEE7destroyEPNS_11__tree_nodeIS2_PvEE
00000001029323e4 t __ZNSt3__16__treeINS_12__value_typeIjxEENS_19__map_value_compareIjS2_NS_4lessIjEELb1EEENS_9allocatorIS2_EEE12__find_equalIS2_EERPNS_16__tree_node_baseIPvEESF_RKT_
0000000102931c98 t __ZNSt3__16__treeINS_12__value_typeIjxEENS_19__map_value_compareIjS2_NS_4lessIjEELb1EEENS_9allocatorIS2_EEE14__erase_uniqueIjEEmRKT_
000000010293233a t __ZNSt3__16__treeINS_12__value_typeIjxEENS_19__map_value_compareIjS2_NS_4lessIjEELb1EEENS_9allocatorIS2_EEE15__insert_uniqueINS_4pairIjxEEEENSB_INS_15__tree_iteratorIS2_PNS_11__tree_nodeIS2_PvEElEEbEEOT_
000000010293243e t __ZNSt3__16__treeINS_12__value_typeIjxEENS_19__map_value_compareIjS2_NS_4lessIjEELb1EEENS_9allocatorIS2_EEE16__insert_node_atEPNS_16__tree_node_baseIPvEERSD_SD_
0000000102932396 t __ZNSt3__16__treeINS_12__value_typeIjxEENS_19__map_value_compareIjS2_NS_4lessIjEELb1EEENS_9allocatorIS2_EEE20__node_insert_uniqueEPNS_11__tree_nodeIS2_PvEE
0000000102931ccc t __ZNSt3__16__treeINS_12__value_typeIjxEENS_19__map_value_compareIjS2_NS_4lessIjEELb1EEENS_9allocatorIS2_EEE4findIjEENS_15__tree_iteratorIS2_PNS_11__tree_nodeIS2_PvEElEERKT_
0000000102931d14 t __ZNSt3__16__treeINS_12__value_typeIjxEENS_19__map_value_compareIjS2_NS_4lessIjEELb1EEENS_9allocatorIS2_EEE5eraseENS_21__tree_const_iteratorIS2_PNS_11__tree_nodeIS2_PvEElEE
000000010292f832 t __ZNSt3__16__treeINS_12__value_typeIjxEENS_19__map_value_compareIjS2_NS_4lessIjEELb1EEENS_9allocatorIS2_EEE7destroyEPNS_11__tree_nodeIS2_PvEE
00000001028e7640 t __ZNSt3__16__treeINS_12__value_typeItP10tagTagInfoEENS_19__map_value_compareItS4_NS_4lessItEELb1EEENS_9allocatorIS4_EEE16__insert_node_atEPNS_16__tree_node_baseIPvEERSF_SF_
00000001028e772a t __ZNSt3__16__treeINS_12__value_typeItP10tagTagInfoEENS_19__map_value_compareItS4_NS_4lessItEELb1EEENS_9allocatorIS4_EEE4findItEENS_15__tree_iteratorIS4_PNS_11__tree_nodeIS4_PvEElEERKT_
00000001028e755c t __ZNSt3__16__treeINS_12__value_typeItP10tagTagInfoEENS_19__map_value_compareItS4_NS_4lessItEELb1EEENS_9allocatorIS4_EEE7destroyEPNS_11__tree_nodeIS4_PvEE
0000000102888018 t __ZNSt3__16__treeINS_12__value_typeIx9AgPointerI6AgUserEEENS_19__map_value_compareIxS5_NS_4lessIxEELb1EEENS_9allocatorIS5_EEE14__erase_uniqueIxEEmRKT_
0000000102887bf8 t __ZNSt3__16__treeINS_12__value_typeIx9AgPointerI6AgUserEEENS_19__map_value_compareIxS5_NS_4lessIxEELb1EEENS_9allocatorIS5_EEE16__insert_node_atEPNS_16__tree_node_baseIPvEERSG_SG_
000000010288804c t __ZNSt3__16__treeINS_12__value_typeIx9AgPointerI6AgUserEEENS_19__map_value_compareIxS5_NS_4lessIxEELb1EEENS_9allocatorIS5_EEE4findIxEENS_15__tree_iteratorIS5_PNS_11__tree_nodeIS5_PvEElEERKT_
0000000102888098 t __ZNSt3__16__treeINS_12__value_typeIx9AgPointerI6AgUserEEENS_19__map_value_compareIxS5_NS_4lessIxEELb1EEENS_9allocatorIS5_EEE5eraseENS_21__tree_const_iteratorIS5_PNS_11__tree_nodeIS5_PvEElEE
00000001028875be t __ZNSt3__16__treeINS_12__value_typeIx9AgPointerI6AgUserEEENS_19__map_value_compareIxS5_NS_4lessIxEELb1EEENS_9allocatorIS5_EEE7destroyEPNS_11__tree_nodeIS5_PvEE
00000001028d3a06 t __ZNSt3__16__treeINS_12__value_typeIx9AgPointerI9AgProfileEEENS_19__map_value_compareIxS5_NS_4lessIxEELb1EEENS_9allocatorIS5_EEE14__erase_uniqueIxEEmRKT_
00000001028d385c t __ZNSt3__16__treeINS_12__value_typeIx9AgPointerI9AgProfileEEENS_19__map_value_compareIxS5_NS_4lessIxEELb1EEENS_9allocatorIS5_EEE16__insert_node_atEPNS_16__tree_node_baseIPvEERSG_SG_
00000001028d3a3a t __ZNSt3__16__treeINS_12__value_typeIx9AgPointerI9AgProfileEEENS_19__map_value_compareIxS5_NS_4lessIxEELb1EEENS_9allocatorIS5_EEE4findIxEENS_15__tree_iteratorIS5_PNS_11__tree_nodeIS5_PvEElEERKT_
00000001028d3a86 t __ZNSt3__16__treeINS_12__value_typeIx9AgPointerI9AgProfileEEENS_19__map_value_compareIxS5_NS_4lessIxEELb1EEENS_9allocatorIS5_EEE5eraseENS_21__tree_const_iteratorIS5_PNS_11__tree_nodeIS5_PvEElEE
00000001028d3512 t __ZNSt3__16__treeINS_12__value_typeIx9AgPointerI9AgProfileEEENS_19__map_value_compareIxS5_NS_4lessIxEELb1EEENS_9allocatorIS5_EEE7destroyEPNS_11__tree_nodeIS5_PvEE
0000000102932194 t __ZNSt3__16__treeINS_12__value_typeIxjEENS_19__map_value_compareIxS2_NS_4lessIxEELb1EEENS_9allocatorIS2_EEE13__erase_multiIxEEmRKT_
000000010293227a t __ZNSt3__16__treeINS_12__value_typeIxjEENS_19__map_value_compareIxS2_NS_4lessIxEELb1EEENS_9allocatorIS2_EEE14__insert_multiINS_4pairIxjEEEENS_15__tree_iteratorIS2_PNS_11__tree_nodeIS2_PvEElEEOT_
00000001029322f2 t __ZNSt3__16__treeINS_12__value_typeIxjEENS_19__map_value_compareIxS2_NS_4lessIxEELb1EEENS_9allocatorIS2_EEE16__insert_node_atEPNS_16__tree_node_baseIPvEERSD_SD_
00000001029321ce t __ZNSt3__16__treeINS_12__value_typeIxjEENS_19__map_value_compareIxS2_NS_4lessIxEELb1EEENS_9allocatorIS2_EEE19__equal_range_multiIxEENS_4pairINS_15__tree_iteratorIS2_PNS_11__tree_nodeIS2_PvEElEESH_EERKT_
0000000102931d6c t __ZNSt3__16__treeINS_12__value_typeIxjEENS_19__map_value_compareIxS2_NS_4lessIxEELb1EEENS_9allocatorIS2_EEE5eraseENS_21__tree_const_iteratorIS2_PNS_11__tree_nodeIS2_PvEElEE
000000010293d670 t __ZNSt3__16__treeINS_12__value_typeIxjEENS_19__map_value_compareIxS2_NS_4lessIxEELb1EEENS_9allocatorIS2_EEE7destroyEPNS_11__tree_nodeIS2_PvEE
00000001028d38a4 t __ZNSt3__16__treeINS_12__value_typeIy9AgPointerI9AgProfileEEENS_19__map_value_compareIyS5_NS_4lessIyEELb1EEENS_9allocatorIS5_EEE14__erase_uniqueIyEEmRKT_
00000001028d37ae t __ZNSt3__16__treeINS_12__value_typeIy9AgPointerI9AgProfileEEENS_19__map_value_compareIyS5_NS_4lessIyEELb1EEENS_9allocatorIS5_EEE16__insert_node_atEPNS_16__tree_node_baseIPvEERSG_SG_
00000001028d38d8 t __ZNSt3__16__treeINS_12__value_typeIy9AgPointerI9AgProfileEEENS_19__map_value_compareIyS5_NS_4lessIyEELb1EEENS_9allocatorIS5_EEE4findIyEENS_15__tree_iteratorIS5_PNS_11__tree_nodeIS5_PvEElEERKT_
00000001028d3924 t __ZNSt3__16__treeINS_12__value_typeIy9AgPointerI9AgProfileEEENS_19__map_value_compareIyS5_NS_4lessIyEELb1EEENS_9allocatorIS5_EEE5eraseENS_21__tree_const_iteratorIS5_PNS_11__tree_nodeIS5_PvEElEE
00000001028d35ee t __ZNSt3__16__treeINS_12__value_typeIy9AgPointerI9AgProfileEEENS_19__map_value_compareIyS5_NS_4lessIyEELb1EEENS_9allocatorIS5_EEE7destroyEPNS_11__tree_nodeIS5_PvEE
00000001027d78f0 t __ZNSt3__16__treeINS_12__value_typeIyN13SteamWorkshop11FileDetailsEEENS_19__map_value_compareIyS4_NS_4lessIyEELb1EEENS_9allocatorIS4_EEE12__find_equalIS4_EERPNS_16__tree_node_baseIPvEESH_RKT_
00000001027d77de t __ZNSt3__16__treeINS_12__value_typeIyN13SteamWorkshop11FileDetailsEEENS_19__map_value_compareIyS4_NS_4lessIyEELb1EEENS_9allocatorIS4_EEE15__insert_uniqueINS_4pairIyS3_EEEENSD_INS_15__tree_iteratorIS4_PNS_11__tree_nodeIS4_PvEElEEbEEOT_
00000001027d794e t __ZNSt3__16__treeINS_12__value_typeIyN13SteamWorkshop11FileDetailsEEENS_19__map_value_compareIyS4_NS_4lessIyEELb1EEENS_9allocatorIS4_EEE16__insert_node_atEPNS_16__tree_node_baseIPvEERSF_SF_
00000001027d78a2 t __ZNSt3__16__treeINS_12__value_typeIyN13SteamWorkshop11FileDetailsEEENS_19__map_value_compareIyS4_NS_4lessIyEELb1EEENS_9allocatorIS4_EEE20__node_insert_uniqueEPNS_11__tree_nodeIS4_PvEE
00000001027d756e t __ZNSt3__16__treeINS_12__value_typeIyN13SteamWorkshop11FileDetailsEEENS_19__map_value_compareIyS4_NS_4lessIyEELb1EEENS_9allocatorIS4_EEE4findIyEENS_15__tree_iteratorIS4_PNS_11__tree_nodeIS4_PvEElEERKT_
00000001027d7774 t __ZNSt3__16__treeINS_12__value_typeIyN13SteamWorkshop11FileDetailsEEENS_19__map_value_compareIyS4_NS_4lessIyEELb1EEENS_9allocatorIS4_EEE5eraseENS_21__tree_const_iteratorIS4_PNS_11__tree_nodeIS4_PvEElEE
00000001027d6fb4 t __ZNSt3__16__treeINS_12__value_typeIyN13SteamWorkshop11FileDetailsEEENS_19__map_value_compareIyS4_NS_4lessIyEELb1EEENS_9allocatorIS4_EEE7destroyEPNS_11__tree_nodeIS4_PvEE
00000001027f537a t __ZNSt3__16__treeINS_12__value_typeIyN2GB4Font14FontCacheEntryEEENS_19__map_value_compareIyS5_NS_4lessIyEELb1EEENS_9allocatorIS5_EEE16__insert_node_atEPNS_16__tree_node_baseIPvEERSG_SG_
00000001027f526c t __ZNSt3__16__treeINS_12__value_typeIyN2GB4Font14FontCacheEntryEEENS_19__map_value_compareIyS5_NS_4lessIyEELb1EEENS_9allocatorIS5_EEE4findIyEENS_15__tree_iteratorIS5_PNS_11__tree_nodeIS5_PvEElEERKT_
00000001027f53ca t __ZNSt3__16__treeINS_12__value_typeIyN2GB4Font14FontCacheEntryEEENS_19__map_value_compareIyS5_NS_4lessIyEELb1EEENS_9allocatorIS5_EEE5eraseENS_21__tree_const_iteratorIS5_PNS_11__tree_nodeIS5_PvEElEE
00000001027f4c1e t __ZNSt3__16__treeINS_12__value_typeIyN2GB4Font14FontCacheEntryEEENS_19__map_value_compareIyS5_NS_4lessIyEELb1EEENS_9allocatorIS5_EEE7destroyEPNS_11__tree_nodeIS5_PvEE
000000010284d3e6 t __ZNSt3__16__treeIiNS_4lessIiEENS_9allocatorIiEEE15__insert_uniqueERKi
                 U __ZNSt3__16localeC1ERKS0_
                 U __ZNSt3__16localeC1Ev
                 U __ZNSt3__16localeD1Ev
00000001029233f8 t __ZNSt3__16removeINS_15__list_iteratorI9AgPointerI9AgArchiveEPvEES4_EET_S7_S7_RKT0_
                 U __ZNSt3__16thread4joinEv
                 U __ZNSt3__16thread6detachEv
000000010293843e t __ZNSt3__16threadC2IM8AgThreadFvvEJPS2_EvEEOT_DpOT0_
                 U __ZNSt3__16threadD1Ev
0000000102876776 t __ZNSt3__16vectorI10AgDelegateIFvRK9AgPointerI15AgRenderContextEyEENS_9allocatorIS8_EEE21__push_back_slow_pathIRKS8_EEvOT_
00000001028768a8 t __ZNSt3__16vectorI10AgDelegateIFvRK9AgPointerI15AgRenderContextEyEENS_9allocatorIS8_EEE26__swap_out_circular_bufferERNS_14__split_bufferIS8_RSA_EE
00000001028751b2 t __ZNSt3__16vectorI10AgDelegateIFvRK9AgPointerI15AgRenderContextEyEENS_9allocatorIS8_EEE7reserveEm
00000001028db658 t __ZNSt3__16vectorI10AgJsonNodeNS_9allocatorIS1_EEE21__push_back_slow_pathIRKS1_EEvOT_
00000001028db772 t __ZNSt3__16vectorI10AgJsonNodeNS_9allocatorIS1_EEE26__swap_out_circular_bufferERNS_14__split_bufferIS1_RS3_EE
000000010288780c t __ZNSt3__16vectorI11AgDelegate1IRK15AgResumingEventvENS_9allocatorIS5_EEE21__push_back_slow_pathIRKS5_EEvOT_
000000010293121c t __ZNSt3__16vectorI11AgDelegate1IRK15AgResumingEventvENS_9allocatorIS5_EEE26__swap_out_circular_bufferERNS_14__split_bufferIS5_RS7_EE
00000001029188b8 t __ZNSt3__16vectorI11AgDelegate1IRK15AgShutdownEventvENS_9allocatorIS5_EEE21__push_back_slow_pathIRKS5_EEvOT_
0000000102871934 t __ZNSt3__16vectorI11AgDelegate1IRK15AgShutdownEventvENS_9allocatorIS5_EEE26__swap_out_circular_bufferERNS_14__split_bufferIS5_RS7_EE
000000010289aeba t __ZNSt3__16vectorI11AgDelegate1IRK16AgUserAddedEventvENS_9allocatorIS5_EEE21__push_back_slow_pathIRKS5_EEvOT_
000000010289afec t __ZNSt3__16vectorI11AgDelegate1IRK16AgUserAddedEventvENS_9allocatorIS5_EEE26__swap_out_circular_bufferERNS_14__split_bufferIS5_RS7_EE
0000000102869878 t __ZNSt3__16vectorI11AgDelegate1IRK17AgMountErrorEventvENS_9allocatorIS5_EEE21__push_back_slow_pathIRKS5_EEvOT_
00000001028699aa t __ZNSt3__16vectorI11AgDelegate1IRK17AgMountErrorEventvENS_9allocatorIS5_EEE26__swap_out_circular_bufferERNS_14__split_bufferIS5_RS7_EE
000000010289b15a t __ZNSt3__16vectorI11AgDelegate1IRK18AgUserRemovedEventvENS_9allocatorIS5_EEE21__push_back_slow_pathIRKS5_EEvOT_
000000010289b28c t __ZNSt3__16vectorI11AgDelegate1IRK18AgUserRemovedEventvENS_9allocatorIS5_EEE26__swap_out_circular_bufferERNS_14__split_bufferIS5_RS7_EE
000000010283acce t __ZNSt3__16vectorI11AgDelegate1IRK20AgMountWriteEndEventvENS_9allocatorIS5_EEE21__push_back_slow_pathIRKS5_EEvOT_
000000010283ae00 t __ZNSt3__16vectorI11AgDelegate1IRK20AgMountWriteEndEventvENS_9allocatorIS5_EEE26__swap_out_circular_bufferERNS_14__split_bufferIS5_RS7_EE
00000001027dee90 t __ZNSt3__16vectorI11AgDelegate1IRK21AgDisplayChangedEventvENS_9allocatorIS5_EEE21__push_back_slow_pathIRKS5_EEvOT_
00000001027defc2 t __ZNSt3__16vectorI11AgDelegate1IRK21AgDisplayChangedEventvENS_9allocatorIS5_EEE26__swap_out_circular_bufferERNS_14__split_bufferIS5_RS7_EE
000000010283aa22 t __ZNSt3__16vectorI11AgDelegate1IRK22AgMountWriteBeginEventvENS_9allocatorIS5_EEE21__push_back_slow_pathIRKS5_EEvOT_
000000010283ab54 t __ZNSt3__16vectorI11AgDelegate1IRK22AgMountWriteBeginEventvENS_9allocatorIS5_EEE26__swap_out_circular_bufferERNS_14__split_bufferIS5_RS7_EE
0000000102868994 t __ZNSt3__16vectorI12AgMountEventNS_9allocatorIS1_EEE21__push_back_slow_pathIRKS1_EEvOT_
0000000102868af0 t __ZNSt3__16vectorI12AgMountEventNS_9allocatorIS1_EEE26__swap_out_circular_bufferERNS_14__split_bufferIS1_RS3_EE
000000010286c892 t __ZNSt3__16vectorI13AgDepthSpriteNS_9allocatorIS1_EEE21__push_back_slow_pathIRKS1_EEvOT_
000000010293dd3e t __ZNSt3__16vectorI13AgDisplayModeNS_9allocatorIS1_EEE21__push_back_slow_pathIRKS1_EEvOT_
0000000102841740 t __ZNSt3__16vectorI13BatchedSpriteNS_9allocatorIS1_EEE6resizeEm
0000000102843f56 t __ZNSt3__16vectorI13BatchedSpriteNS_9allocatorIS1_EEE8__appendEm
0000000102868c96 t __ZNSt3__16vectorI14AgUnmountEventNS_9allocatorIS1_EEE21__push_back_slow_pathIRKS1_EEvOT_
0000000102868df2 t __ZNSt3__16vectorI14AgUnmountEventNS_9allocatorIS1_EEE26__swap_out_circular_bufferERNS_14__split_bufferIS1_RS3_EE
00000001028a8d8a t __ZNSt3__16vectorI15AgResumingEventNS_9allocatorIS1_EEE21__push_back_slow_pathIRKS1_EEvOT_
00000001028a8e72 t __ZNSt3__16vectorI15AgShutdownEventNS_9allocatorIS1_EEE21__push_back_slow_pathIRKS1_EEvOT_
00000001028a8ad2 t __ZNSt3__16vectorI16AgActivatedEventNS_9allocatorIS1_EEE21__push_back_slow_pathIRKS1_EEvOT_
0000000102887d16 t __ZNSt3__16vectorI16AgUserAddedEventNS_9allocatorIS1_EEE21__push_back_slow_pathIRKS1_EEvOT_
0000000102887e72 t __ZNSt3__16vectorI16AgUserAddedEventNS_9allocatorIS1_EEE26__swap_out_circular_bufferERNS_14__split_bufferIS1_RS3_EE
00000001028b7886 t __ZNSt3__16vectorI17AgMountErrorEventNS_9allocatorIS1_EEE21__push_back_slow_pathIRKS1_EEvOT_
00000001028b79b8 t __ZNSt3__16vectorI17AgMountErrorEventNS_9allocatorIS1_EEE26__swap_out_circular_bufferERNS_14__split_bufferIS1_RS3_EE
00000001028a8ca2 t __ZNSt3__16vectorI17AgSuspendingEventNS_9allocatorIS1_EEE21__push_back_slow_pathIRKS1_EEvOT_
00000001028a8bba t __ZNSt3__16vectorI18AgDeactivatedEventNS_9allocatorIS1_EEE21__push_back_slow_pathIRKS1_EEvOT_
0000000102888248 t __ZNSt3__16vectorI18AgUserRemovedEventNS_9allocatorIS1_EEE21__push_back_slow_pathIRKS1_EEvOT_
00000001028883a4 t __ZNSt3__16vectorI18AgUserRemovedEventNS_9allocatorIS1_EEE26__swap_out_circular_bufferERNS_14__split_bufferIS1_RS3_EE
0000000102888622 t __ZNSt3__16vectorI18AgUserUpdatedEventNS_9allocatorIS1_EEE21__push_back_slow_pathIRKS1_EEvOT_
00000001028887a0 t __ZNSt3__16vectorI18AgUserUpdatedEventNS_9allocatorIS1_EEE26__swap_out_circular_bufferERNS_14__split_bufferIS1_RS3_EE
000000010286920a t __ZNSt3__16vectorI20AgMountWriteEndEventNS_9allocatorIS1_EEE21__push_back_slow_pathIRKS1_EEvOT_
0000000102869366 t __ZNSt3__16vectorI20AgMountWriteEndEventNS_9allocatorIS1_EEE26__swap_out_circular_bufferERNS_14__split_bufferIS1_RS3_EE
00000001028a8f5a t __ZNSt3__16vectorI21AgDisplayChangedEventNS_9allocatorIS1_EEE21__push_back_slow_pathIRKS1_EEvOT_
0000000102931838 t __ZNSt3__16vectorI22AgControllerAddedEventNS_9allocatorIS1_EEE21__push_back_slow_pathIRKS1_EEvOT_
0000000102931994 t __ZNSt3__16vectorI22AgControllerAddedEventNS_9allocatorIS1_EEE26__swap_out_circular_bufferERNS_14__split_bufferIS1_RS3_EE
0000000102868692 t __ZNSt3__16vectorI22AgMountWriteBeginEventNS_9allocatorIS1_EEE21__push_back_slow_pathIRKS1_EEvOT_
00000001028687ee t __ZNSt3__16vectorI22AgMountWriteBeginEventNS_9allocatorIS1_EEE26__swap_out_circular_bufferERNS_14__split_bufferIS1_RS3_EE
0000000102931e92 t __ZNSt3__16vectorI24AgControllerRemovedEventNS_9allocatorIS1_EEE21__push_back_slow_pathIRKS1_EEvOT_
0000000102931fee t __ZNSt3__16vectorI24AgControllerRemovedEventNS_9allocatorIS1_EEE26__swap_out_circular_bufferERNS_14__split_bufferIS1_RS3_EE
0000000102932506 t __ZNSt3__16vectorI31AgControllerPairingChangedEventNS_9allocatorIS1_EEE21__push_back_slow_pathIRKS1_EEvOT_
000000010293282e t __ZNSt3__16vectorI31AgControllerPairingChangedEventNS_9allocatorIS1_EEE26__swap_out_circular_bufferERNS_14__split_bufferIS1_RS3_EE
0000000102875fb4 t __ZNSt3__16vectorI7CommandNS_9allocatorIS1_EEE21__push_back_slow_pathIRKS1_EEvOT_
0000000102874f50 t __ZNSt3__16vectorI7CommandNS_9allocatorIS1_EEE7reserveEm
00000001028a9042 t __ZNSt3__16vectorI8AgStringNS_9allocatorIS1_EEE21__push_back_slow_pathIS1_EEvOT_
00000001028b9afe t __ZNSt3__16vectorI9AgPointerI10AgLanguageENS_9allocatorIS3_EEE21__push_back_slow_pathIRKS3_EEvOT_
00000001028b9c5a t __ZNSt3__16vectorI9AgPointerI10AgLanguageENS_9allocatorIS3_EEE26__swap_out_circular_bufferERNS_14__split_bufferIS3_RS5_EE
0000000102876172 t __ZNSt3__16vectorI9AgPointerI10AgResourceENS_9allocatorIS3_EEE21__push_back_slow_pathIRKS3_EEvOT_
00000001028762ce t __ZNSt3__16vectorI9AgPointerI10AgResourceENS_9allocatorIS3_EEE26__swap_out_circular_bufferERNS_14__split_bufferIS3_RS5_EE
0000000102875066 t __ZNSt3__16vectorI9AgPointerI10AgResourceENS_9allocatorIS3_EEE7reserveEm
000000010289aa34 t __ZNSt3__16vectorI9AgPointerI12AgControllerENS_9allocatorIS3_EEE21__push_back_slow_pathIRKS3_EEvOT_
000000010289ab90 t __ZNSt3__16vectorI9AgPointerI12AgControllerENS_9allocatorIS3_EEE26__swap_out_circular_bufferERNS_14__split_bufferIS3_RS5_EE
00000001028d908e t __ZNSt3__16vectorI9AgPointerI12AgRenderListENS_9allocatorIS3_EEE21__push_back_slow_pathIRKS3_EEvOT_
00000001028d91ea t __ZNSt3__16vectorI9AgPointerI12AgRenderListENS_9allocatorIS3_EEE26__swap_out_circular_bufferERNS_14__split_bufferIS3_RS5_EE
00000001028d0e6a t __ZNSt3__16vectorI9AgPointerI13AgAudioEffectENS_9allocatorIS3_EEE21__push_back_slow_pathIRKS3_EEvOT_
00000001028d0fc6 t __ZNSt3__16vectorI9AgPointerI13AgAudioEffectENS_9allocatorIS3_EEE26__swap_out_circular_bufferERNS_14__split_bufferIS3_RS5_EE
0000000102876ae6 t __ZNSt3__16vectorI9AgPointerI17AgConstantsPacketENS_9allocatorIS3_EEE21__push_back_slow_pathIRKS3_EEvOT_
0000000102876c42 t __ZNSt3__16vectorI9AgPointerI17AgConstantsPacketENS_9allocatorIS3_EEE26__swap_out_circular_bufferERNS_14__split_bufferIS3_RS5_EE
000000010287532c t __ZNSt3__16vectorI9AgPointerI17AgConstantsPacketENS_9allocatorIS3_EEE7reserveEm
00000001028889b0 t __ZNSt3__16vectorI9AgPointerI6AgUserENS_9allocatorIS3_EEE21__push_back_slow_pathIRKS3_EEvOT_
0000000102888b0c t __ZNSt3__16vectorI9AgPointerI6AgUserENS_9allocatorIS3_EEE26__swap_out_circular_bufferERNS_14__split_bufferIS3_RS5_EE
00000001027c06ac t __ZNSt3__16vectorI9AgPointerI6ShaderENS_9allocatorIS3_EEE21__push_back_slow_pathIRKS3_EEvOT_
00000001027c0808 t __ZNSt3__16vectorI9AgPointerI6ShaderENS_9allocatorIS3_EEE26__swap_out_circular_bufferERNS_14__split_bufferIS3_RS5_EE
00000001028719d2 t __ZNSt3__16vectorI9AgPointerI8AgDialogENS_9allocatorIS3_EEE21__push_back_slow_pathIRKS3_EEvOT_
0000000102871b2e t __ZNSt3__16vectorI9AgPointerI8AgDialogENS_9allocatorIS3_EEE26__swap_out_circular_bufferERNS_14__split_bufferIS3_RS5_EE
000000010289b61e t __ZNSt3__16vectorI9AgPointerI8AgPlayerENS_9allocatorIS3_EEE21__push_back_slow_pathIRKS3_EEvOT_
000000010289b77a t __ZNSt3__16vectorI9AgPointerI8AgPlayerENS_9allocatorIS3_EEE26__swap_out_circular_bufferERNS_14__split_bufferIS3_RS5_EE
0000000102876474 t __ZNSt3__16vectorI9AgPointerI8AgStreamENS_9allocatorIS3_EEE21__push_back_slow_pathIRKS3_EEvOT_
00000001028765d0 t __ZNSt3__16vectorI9AgPointerI8AgStreamENS_9allocatorIS3_EEE26__swap_out_circular_bufferERNS_14__split_bufferIS3_RS5_EE
000000010287510c t __ZNSt3__16vectorI9AgPointerI8AgStreamENS_9allocatorIS3_EEE7reserveEm
000000010286e0cc t __ZNSt3__16vectorI9AgPointerI8AgThreadENS_9allocatorIS3_EEE21__push_back_slow_pathIRKS3_EEvOT_
000000010286df26 t __ZNSt3__16vectorI9AgPointerI8AgThreadENS_9allocatorIS3_EEE26__swap_out_circular_bufferERNS_14__split_bufferIS3_RS5_EE
000000010286d960 t __ZNSt3__16vectorI9AgPointerI8AgThreadENS_9allocatorIS3_EEE7reserveEm
0000000102937d6a t __ZNSt3__16vectorI9AgPointerI9AgSessionENS_9allocatorIS3_EEE21__push_back_slow_pathIRKS3_EEvOT_
0000000102937ec6 t __ZNSt3__16vectorI9AgPointerI9AgSessionENS_9allocatorIS3_EEE26__swap_out_circular_bufferERNS_14__split_bufferIS3_RS5_EE
0000000102875cb2 t __ZNSt3__16vectorI9AgPointerIN12AgRenderList15CaptureCallbackEENS_9allocatorIS4_EEE21__push_back_slow_pathIRKS4_EEvOT_
0000000102875e0e t __ZNSt3__16vectorI9AgPointerIN12AgRenderList15CaptureCallbackEENS_9allocatorIS4_EEE26__swap_out_circular_bufferERNS_14__split_bufferIS4_RS6_EE
0000000102918df6 t __ZNSt3__16vectorI9AgVector2NS_9allocatorIS1_EEE10deallocateEv
0000000102918e48 t __ZNSt3__16vectorI9AgVector2NS_9allocatorIS1_EEE21__push_back_slow_pathIRKS1_EEvOT_
0000000102918db6 t __ZNSt3__16vectorI9AgVector2NS_9allocatorIS1_EEE8allocateEm
0000000102918d46 t __ZNSt3__16vectorI9AgVector2NS_9allocatorIS1_EEEC2ERKS4_
0000000102876982 t __ZNSt3__16vectorI9AgVector4NS_9allocatorIS1_EEE21__push_back_slow_pathIRKS1_EEvOT_
0000000102876dd0 t __ZNSt3__16vectorI9AgVector4NS_9allocatorIS1_EEE6resizeEm
0000000102875260 t __ZNSt3__16vectorI9AgVector4NS_9allocatorIS1_EEE7reserveEm
0000000102876e18 t __ZNSt3__16vectorI9AgVector4NS_9allocatorIS1_EEE8__appendEm
000000010291539a t __ZNSt3__16vectorIN11AgDirectory14DirectoryEntryENS_9allocatorIS2_EEE21__push_back_slow_pathIRKS2_EEvOT_
00000001029154b6 t __ZNSt3__16vectorIN11AgDirectory14DirectoryEntryENS_9allocatorIS2_EEE26__swap_out_circular_bufferERNS_14__split_bufferIS2_RS4_EE
00000001027fb83a t __ZNSt3__16vectorIN12SoundManager10MusicTrackENS_9allocatorIS2_EEE21__push_back_slow_pathIRKS2_EEvOT_
00000001027fbb9a t __ZNSt3__16vectorIN12SoundManager10MusicTrackENS_9allocatorIS2_EEE26__swap_out_circular_bufferERNS_14__split_bufferIS2_RS4_EE
0000000102810038 t __ZNSt3__16vectorIN13ObjectManager13OverlaySpriteENS_9allocatorIS2_EEE21__push_back_slow_pathIRKS2_EEvOT_
00000001028102c6 t __ZNSt3__16vectorIN13ObjectManager13OverlaySpriteENS_9allocatorIS2_EEE26__swap_out_circular_bufferERNS_14__split_bufferIS2_RS4_EE
0000000102846a60 t __ZNSt3__16vectorIN16MemoryStreamPoolI11AgAllocatorIL16AgAllocatorTypes1EEE21MemoryStreamPoolEntryENS_9allocatorIS6_EEE21__push_back_slow_pathIRKS6_EEvOT_
0000000102846bde t __ZNSt3__16vectorIN16MemoryStreamPoolI11AgAllocatorIL16AgAllocatorTypes1EEE21MemoryStreamPoolEntryENS_9allocatorIS6_EEE26__swap_out_circular_bufferERNS_14__split_bufferIS6_RS8_EE
000000010285f8b0 t __ZNSt3__16vectorIN16MemoryStreamPoolI18AgForwardAllocatorI16AgFrameAllocatorI11AgAllocatorIL16AgAllocatorTypes1EEEEE21MemoryStreamPoolEntryENS_9allocatorISA_EEE21__push_back_slow_pathIRKSA_EEvOT_
00000001028449f6 t __ZNSt3__16vectorIN16MemoryStreamPoolI18AgForwardAllocatorI16AgFrameAllocatorI11AgAllocatorIL16AgAllocatorTypes1EEEEE21MemoryStreamPoolEntryENS_9allocatorISA_EEE26__swap_out_circular_bufferERNS_14__split_bufferISA_RSC_EE
00000001027f4f18 t __ZNSt3__16vectorIN16StringCompositor4LineENS_9allocatorIS2_EEE10deallocateEv
00000001027dfce6 t __ZNSt3__16vectorIN16StringCompositor4LineENS_9allocatorIS2_EEE21__push_back_slow_pathIS2_EEvOT_
00000001027dfe18 t __ZNSt3__16vectorIN16StringCompositor4LineENS_9allocatorIS2_EEE26__swap_out_circular_bufferERNS_14__split_bufferIS2_RS4_EE
00000001027f4d70 t __ZNSt3__16vectorIN16StringCompositor4LineENS_9allocatorIS2_EEE6assignIPS2_EENS_9enable_ifIXaasr21__is_forward_iteratorIT_EE5valuesr16is_constructibleIS2_NS_15iterator_traitsIS9_E9referenceEEE5valueEvE4typeES9_S9_
00000001027f4f74 t __ZNSt3__16vectorIN16StringCompositor4LineENS_9allocatorIS2_EEE8allocateEm
00000001027f50ec t __ZNSt3__16vectorIN16StringCompositor5GlyphENS_9allocatorIS2_EEE10deallocateEv
00000001027dff02 t __ZNSt3__16vectorIN16StringCompositor5GlyphENS_9allocatorIS2_EEE21__push_back_slow_pathIRKS2_EEvOT_
00000001027f4fb2 t __ZNSt3__16vectorIN16StringCompositor5GlyphENS_9allocatorIS2_EEE6assignIPS2_EENS_9enable_ifIXaasr21__is_forward_iteratorIT_EE5valuesr16is_constructibleIS2_NS_15iterator_traitsIS9_E9referenceEEE5valueEvE4typeES9_S9_
00000001027f513e t __ZNSt3__16vectorIN16StringCompositor5GlyphENS_9allocatorIS2_EEE8allocateEm
00000001027f517c t __ZNSt3__16vectorIN16StringCompositor5GlyphENS_9allocatorIS2_EEEC2ERKS5_
00000001027df0a8 t __ZNSt3__16vectorIN17GameBakerGraphics11DisplayModeENS_9allocatorIS2_EEE21__push_back_slow_pathIRKS2_EEvOT_
000000010292a3b6 t __ZNSt3__16vectorIN19AgVertexDeclaration4ItemENS_9allocatorIS2_EEE10deallocateEv
000000010292a462 t __ZNSt3__16vectorIN19AgVertexDeclaration4ItemENS_9allocatorIS2_EEE21__push_back_slow_pathIRKS2_EEvOT_
000000010292a242 t __ZNSt3__16vectorIN19AgVertexDeclaration4ItemENS_9allocatorIS2_EEE6assignIPS2_EENS_9enable_ifIXaasr21__is_forward_iteratorIT_EE5valuesr16is_constructibleIS2_NS_15iterator_traitsIS9_E9referenceEEE5valueEvE4typeES9_S9_
000000010292a41a t __ZNSt3__16vectorIN19AgVertexDeclaration4ItemENS_9allocatorIS2_EEE8allocateEm
0000000102911a94 t __ZNSt3__16vectorIN20AgTextureAtlasReader11SpriteFrameENS_9allocatorIS2_EEE21__push_back_slow_pathIRKS2_EEvOT_
0000000102911750 t __ZNSt3__16vectorIN20AgTextureAtlasReader11SpriteFrameENS_9allocatorIS2_EEE6resizeEm
0000000102911876 t __ZNSt3__16vectorIN20AgTextureAtlasReader11SpriteFrameENS_9allocatorIS2_EEE8__appendEm
0000000102911df8 t __ZNSt3__16vectorIN20AgTextureAtlasReader11SpriteFrameENS_9allocatorIS2_EEE8allocateEm
0000000102911d7a t __ZNSt3__16vectorIN20AgTextureAtlasReader11SpriteFrameENS_9allocatorIS2_EEEC2ERKS5_
0000000102911c30 t __ZNSt3__16vectorIN20AgTextureAtlasReader6SpriteENS_9allocatorIS2_EEE21__push_back_slow_pathIRKS2_EEvOT_
0000000102911e40 t __ZNSt3__16vectorIN20AgTextureAtlasReader6SpriteENS_9allocatorIS2_EEE26__swap_out_circular_bufferERNS_14__split_bufferIS2_RS4_EE
00000001028d116c t __ZNSt3__16vectorIN22AgAudioChannelBaseData7CommandENS_9allocatorIS2_EEE21__push_back_slow_pathIS2_EEvOT_
00000001027d8d0a t __ZNSt3__16vectorIN3gml7GMLPath9NodePointENS_9allocatorIS3_EEE8allocateEm
00000001027d8c64 t __ZNSt3__16vectorIN3gml7GMLPath9NodePointENS_9allocatorIS3_EEEC2INS_15__list_iteratorIS3_PvEEEET_NS_9enable_ifIXaasr21__is_forward_iteratorISB_EE5valuesr16is_constructibleIS3_NS_15iterator_traitsISB_E9referenceEEE5valueESB_E4typeE
0000000102858db0 t __ZNSt3__16vectorIN3gml7PGMLVarENS_9allocatorIS2_EEE18__construct_at_endINS_11__wrap_iterIPS2_EEEENS_9enable_ifIXsr21__is_forward_iteratorIT_EE5valueEvE4typeESB_SB_m
000000010285624c t __ZNSt3__16vectorIN3gml7PGMLVarENS_9allocatorIS2_EEE21__push_back_slow_pathIRKS2_EEvOT_
0000000102856356 t __ZNSt3__16vectorIN3gml7PGMLVarENS_9allocatorIS2_EEE26__swap_out_circular_bufferERNS_14__split_bufferIS2_RS4_EE
0000000102858d72 t __ZNSt3__16vectorIN3gml7PGMLVarENS_9allocatorIS2_EEE8allocateEm
0000000102858cf8 t __ZNSt3__16vectorIN3gml7PGMLVarENS_9allocatorIS2_EEEC2INS_11__wrap_iterIPS2_EEEET_NS_9enable_ifIXaasr21__is_forward_iteratorISA_EE5valuesr16is_constructibleIS2_NS_15iterator_traitsISA_E9referenceEEE5valueESA_E4typeE
00000001027b1b6e t __ZNSt3__16vectorIN3gml8GridNodeENS_9allocatorIS2_EEE21__push_back_slow_pathIRKS2_EEvOT_
0000000102848a88 t __ZNSt3__16vectorIN5Sound13SoundInstanceENS_9allocatorIS2_EEE21__push_back_slow_pathIRKS2_EEvOT_
0000000102848bfc t __ZNSt3__16vectorIN5Sound13SoundInstanceENS_9allocatorIS2_EEE26__swap_out_circular_bufferERNS_14__split_bufferIS2_RS4_EE
0000000102923e66 t __ZNSt3__16vectorIN9AgArchive14DirectoryEntryENS_9allocatorIS2_EEE21__push_back_slow_pathIS2_EEvOT_
0000000102923f94 t __ZNSt3__16vectorIN9AgArchive14DirectoryEntryENS_9allocatorIS2_EEE26__swap_out_circular_bufferERNS_14__split_bufferIS2_RS4_EE
0000000102903fe0 t __ZNSt3__16vectorINS_12basic_stringIcNS_11char_traitsIcEENS_9allocatorIcEEEENS4_IS6_EEE21__push_back_slow_pathIRKS6_EEvOT_
00000001028ab36a t __ZNSt3__16vectorINS_12basic_stringIcNS_11char_traitsIcEENS_9allocatorIcEEEENS4_IS6_EEE21__push_back_slow_pathIS6_EEvOT_
0000000102904102 t __ZNSt3__16vectorINS_12basic_stringIcNS_11char_traitsIcEENS_9allocatorIcEEEENS4_IS6_EEE26__swap_out_circular_bufferERNS_14__split_bufferIS6_RS7_EE
00000001029042d2 t __ZNSt3__16vectorINS_4pairINS_12basic_stringIcNS_11char_traitsIcEENS_9allocatorIcEEEES7_EENS5_IS8_EEE21__push_back_slow_pathIS8_EEvOT_
000000010290443a t __ZNSt3__16vectorINS_4pairINS_12basic_stringIcNS_11char_traitsIcEENS_9allocatorIcEEEES7_EENS5_IS8_EEE26__swap_out_circular_bufferERNS_14__split_bufferIS8_RS9_EE
0000000102904550 t __ZNSt3__16vectorINS_4pairIccEENS_9allocatorIS2_EEE21__push_back_slow_pathIS2_EEvOT_
0000000102907afc t __ZNSt3__16vectorINS_4pairImPKcEENS_9allocatorIS4_EEE10deallocateEv
00000001029079cc t __ZNSt3__16vectorINS_4pairImPKcEENS_9allocatorIS4_EEE6assignIPS4_EENS_9enable_ifIXaasr21__is_forward_iteratorIT_EE5valuesr16is_constructibleIS4_NS_15iterator_traitsISB_E9referenceEEE5valueEvE4typeESB_SB_
00000001028ff482 t __ZNSt3__16vectorINS_4pairImPKcEENS_9allocatorIS4_EEE6resizeEm
00000001028ffa60 t __ZNSt3__16vectorINS_4pairImPKcEENS_9allocatorIS4_EEE8__appendEm
00000001028ffcec t __ZNSt3__16vectorINS_4pairImPKcEENS_9allocatorIS4_EEE8allocateEm
00000001028ffc7c t __ZNSt3__16vectorINS_4pairImPKcEENS_9allocatorIS4_EEEC2ERKS7_
00000001028ff4ca t __ZNSt3__16vectorINS_7__stateIcEENS_9allocatorIS2_EEE21__push_back_slow_pathIS2_EEvOT_
00000001028ff696 t __ZNSt3__16vectorINS_7__stateIcEENS_9allocatorIS2_EEE26__swap_out_circular_bufferERNS_14__split_bufferIS2_RS4_EE
0000000102907b4e t __ZNSt3__16vectorINS_9sub_matchINS_11__wrap_iterIPKcEEEENS_9allocatorIS6_EEE6resizeEm
0000000102907bae t __ZNSt3__16vectorINS_9sub_matchINS_11__wrap_iterIPKcEEEENS_9allocatorIS6_EEE8__appendEm
00000001028ff376 t __ZNSt3__16vectorINS_9sub_matchIPKcEENS_9allocatorIS4_EEE10deallocateEv
00000001028ff1fc t __ZNSt3__16vectorINS_9sub_matchIPKcEENS_9allocatorIS4_EEE6assignEmRKS4_
0000000102907850 t __ZNSt3__16vectorINS_9sub_matchIPKcEENS_9allocatorIS4_EEE6assignIPS4_EENS_9enable_ifIXaasr21__is_forward_iteratorIT_EE5valuesr16is_constructibleIS4_NS_15iterator_traitsISB_E9referenceEEE5valueEvE4typeESB_SB_
00000001028ff422 t __ZNSt3__16vectorINS_9sub_matchIPKcEENS_9allocatorIS4_EEE6resizeEmRKS4_
00000001028ff842 t __ZNSt3__16vectorINS_9sub_matchIPKcEENS_9allocatorIS4_EEE8__appendEmRKS4_
00000001028ff3da t __ZNSt3__16vectorINS_9sub_matchIPKcEENS_9allocatorIS4_EEE8allocateEm
00000001028ffbfe t __ZNSt3__16vectorINS_9sub_matchIPKcEENS_9allocatorIS4_EEEC2ERKS7_
00000001028be84e t __ZNSt3__16vectorIP14AgAudioChannelNS_9allocatorIS2_EEE21__push_back_slow_pathIS2_EEvOT_
00000001029210d4 t __ZNSt3__16vectorIP20AgServiceCommandBaseNS_9allocatorIS2_EEE8allocateEm
000000010292106c t __ZNSt3__16vectorIP20AgServiceCommandBaseNS_9allocatorIS2_EEEC2Em
00000001028104ca t __ZNSt3__16vectorIP6ObjectNS_9allocatorIS2_EEE21__push_back_slow_pathIRKS2_EEvOT_
000000010282ad10 t __ZNSt3__16vectorIP6ObjectNS_9allocatorIS2_EEE5eraseENS_11__wrap_iterIPKS2_EES9_
00000001028441bc t __ZNSt3__16vectorIP6SpriteNS_9allocatorIS2_EEE21__push_back_slow_pathIS2_EEvOT_
0000000102801d92 t __ZNSt3__16vectorIP9ITickableNS_9allocatorIS2_EEE21__push_back_slow_pathIRKS2_EEvOT_
00000001027d76e2 t __ZNSt3__16vectorIPKcNS_9allocatorIS2_EEE10deallocateEv
00000001027d2cf0 t __ZNSt3__16vectorIPKcNS_9allocatorIS2_EEE21__push_back_slow_pathIS2_EEvOT_
00000001027d75ba t __ZNSt3__16vectorIPKcNS_9allocatorIS2_EEE6assignIPS2_EENS_9enable_ifIXaasr21__is_forward_iteratorIT_EE5valuesr16is_constructibleIS2_NS_15iterator_traitsIS9_E9referenceEEE5valueEvE4typeES9_S9_
00000001027d7734 t __ZNSt3__16vectorIPKcNS_9allocatorIS2_EEE8allocateEm
00000001028111aa t __ZNSt3__16vectorIPN3gml10GMLSurfaceENS_9allocatorIS3_EEE21__push_back_slow_pathIS3_EEvOT_
0000000102811050 t __ZNSt3__16vectorIPN3gml10GMLTextureENS_9allocatorIS3_EEE21__push_back_slow_pathIS3_EEvOT_
00000001027cb5f4 t __ZNSt3__16vectorIPN3gml10GMLTextureENS_9allocatorIS3_EEE6resizeEm
00000001027cb72e t __ZNSt3__16vectorIPN3gml10GMLTextureENS_9allocatorIS3_EEE8__appendEm
000000010281f8a0 t __ZNSt3__16vectorIPN3gml13GMLBackgroundENS_9allocatorIS3_EEE6resizeEm
000000010281f8e6 t __ZNSt3__16vectorIPN3gml13GMLBackgroundENS_9allocatorIS3_EEE8__appendEm
0000000102807e26 t __ZNSt3__16vectorIPN3gml16GMLAlarmInstanceENS_9allocatorIS3_EEE6resizeEm
0000000102807ea2 t __ZNSt3__16vectorIPN3gml16GMLAlarmInstanceENS_9allocatorIS3_EEE8__appendEm
0000000102853e5e t __ZNSt3__16vectorIPN3gml17GMLObjectInstanceENS_9allocatorIS3_EEE18__construct_at_endIN4ListIS3_E8iteratorEEENS_9enable_ifIXsr21__is_forward_iteratorIT_EE5valueEvE4typeESC_SC_m
00000001027b2c60 t __ZNSt3__16vectorIPN3gml17GMLObjectInstanceENS_9allocatorIS3_EEE21__push_back_slow_pathIRKS3_EEvOT_
0000000102853e1e t __ZNSt3__16vectorIPN3gml17GMLObjectInstanceENS_9allocatorIS3_EEE8allocateEm
000000010285375c t __ZNSt3__16vectorIPN3gml17GMLObjectInstanceENS_9allocatorIS3_EEEC2IN4ListIS3_E8iteratorEEET_NS_9enable_ifIXaasr21__is_forward_iteratorISB_EE5valuesr16is_constructibleIS3_NS_15iterator_traitsISB_E9referenceEEE5valueESB_E4typeE
000000010281fc1c t __ZNSt3__16vectorIPN3gml7GMLFileENS_9allocatorIS3_EEE6resizeEm
000000010281fc62 t __ZNSt3__16vectorIPN3gml7GMLFileENS_9allocatorIS3_EEE8__appendEm
000000010280318c t __ZNSt3__16vectorIPN3gml7GMLFontENS_9allocatorIS3_EEE6resizeEm
00000001028031d2 t __ZNSt3__16vectorIPN3gml7GMLFontENS_9allocatorIS3_EEE8__appendEm
000000010280a018 t __ZNSt3__16vectorIPN3gml7GMLGridENS_9allocatorIS3_EEE21__push_back_slow_pathIS3_EEvOT_
000000010281fa78 t __ZNSt3__16vectorIPN3gml7GMLGridENS_9allocatorIS3_EEE6resizeEm
000000010281fabe t __ZNSt3__16vectorIPN3gml7GMLGridENS_9allocatorIS3_EEE8__appendEm
00000001028204b8 t __ZNSt3__16vectorIPN3gml7GMLListENS_9allocatorIS3_EEE21__push_back_slow_pathIS3_EEvOT_
0000000102820198 t __ZNSt3__16vectorIPN3gml7GMLListENS_9allocatorIS3_EEE6resizeEm
00000001028202e6 t __ZNSt3__16vectorIPN3gml7GMLListENS_9allocatorIS3_EEE8__appendEm
0000000102809eb6 t __ZNSt3__16vectorIPN3gml7GMLPathENS_9allocatorIS3_EEE21__push_back_slow_pathIS3_EEvOT_
000000010281f63a t __ZNSt3__16vectorIPN3gml7GMLPathENS_9allocatorIS3_EEE6resizeEm
000000010281f6d2 t __ZNSt3__16vectorIPN3gml7GMLPathENS_9allocatorIS3_EEE8__appendEm
000000010281fdf0 t __ZNSt3__16vectorIPN3gml7GMLRoomENS_9allocatorIS3_EEE6resizeEm
000000010281fe36 t __ZNSt3__16vectorIPN3gml7GMLRoomENS_9allocatorIS3_EEE8__appendEm
000000010281ffc4 t __ZNSt3__16vectorIPN3gml8GMLSoundENS_9allocatorIS3_EEE6resizeEm
000000010282000a t __ZNSt3__16vectorIPN3gml8GMLSoundENS_9allocatorIS3_EEE8__appendEm
000000010280369c t __ZNSt3__16vectorIPN3gml9GMLObjectENS_9allocatorIS3_EEE6resizeEm
00000001028036e2 t __ZNSt3__16vectorIPN3gml9GMLObjectENS_9allocatorIS3_EEE8__appendEm
00000001027b2ba0 t __ZNSt3__16vectorIPN4ListIPN3gml17GMLObjectInstanceEE13iterator_dataENS_9allocatorIS7_EEE8allocateEm
00000001027b2b38 t __ZNSt3__16vectorIPN4ListIPN3gml17GMLObjectInstanceEE13iterator_dataENS_9allocatorIS7_EEEC2Em
00000001028073d4 t __ZNSt3__16vectorIPN7TileSet4TileENS_9allocatorIS3_EEE21__push_back_slow_pathIRKS3_EEvOT_
00000001028072e4 t __ZNSt3__16vectorIPN7TileSet4TileENS_9allocatorIS3_EEE5eraseENS_11__wrap_iterIPKS3_EESA_
0000000102807230 t __ZNSt3__16vectorIPN7TileSet4TileENS_9allocatorIS3_EEE6resizeEm
000000010280752e t __ZNSt3__16vectorIPN7TileSet4TileENS_9allocatorIS3_EEE8__appendEm
00000001028078f4 t __ZNSt3__16vectorIPN7TileSet4TileENS_9allocatorIS3_EEE8allocateEm
0000000102807884 t __ZNSt3__16vectorIPN7TileSet4TileENS_9allocatorIS3_EEEC2ERKS6_
000000010280bb38 t __ZNSt3__16vectorIPN8TileGrid8GridCellENS_9allocatorIS3_EEE21__push_back_slow_pathIS3_EEvOT_
000000010280b7a6 t __ZNSt3__16vectorIPN8TileGrid8GridCellENS_9allocatorIS3_EEE8allocateEm
000000010280b736 t __ZNSt3__16vectorIPN8TileGrid8GridCellENS_9allocatorIS3_EEEC2ERKS6_
000000010280b9de t __ZNSt3__16vectorIPN8TileGrid8GridTileENS_9allocatorIS3_EEE21__push_back_slow_pathIS3_EEvOT_
00000001028e9334 t __ZNSt3__16vectorIbNS_9allocatorIbEEE18__construct_at_endINS_14__bit_iteratorIS3_Lb0ELm0EEEEENS_9enable_ifIXsr21__is_forward_iteratorIT_EE5valueEvE4typeES8_S8_
00000001028c2004 t __ZNSt3__16vectorIbNS_9allocatorIbEEE6resizeEmb
0000000102930008 t __ZNSt3__16vectorIbNS_9allocatorIbEEE7reserveEm
00000001028c2464 t __ZNSt3__16vectorIbNS_9allocatorIbEEE8allocateEm
0000000102930836 t __ZNSt3__16vectorIbNS_9allocatorIbEEE9push_backERKb
000000010292f97e t __ZNSt3__16vectorIbNS_9allocatorIbEEEaSERKS3_
00000001029023d6 t __ZNSt3__16vectorIcNS_9allocatorIcEEE21__push_back_slow_pathIRKcEEvOT_
00000001029022ca t __ZNSt3__16vectorIcNS_9allocatorIcEEE21__push_back_slow_pathIcEEvOT_
00000001028fd226 t __ZNSt3__16vectorIcNS_9allocatorIcEEE6resizeEm
0000000102907ee2 t __ZNSt3__16vectorIcNS_9allocatorIcEEE8__appendEm
0000000102879cde t __ZNSt3__16vectorIcNS_9allocatorIcEEE8allocateEm
0000000102879c68 t __ZNSt3__16vectorIcNS_9allocatorIcEEEC2ERKS3_
000000010287a2d4 t __ZNSt3__16vectorIfNS_9allocatorIfEEE10deallocateEv
0000000102917ed0 t __ZNSt3__16vectorIfNS_9allocatorIfEEE6resizeEm
000000010291807c t __ZNSt3__16vectorIfNS_9allocatorIfEEE8__appendEm
0000000102879ebe t __ZNSt3__16vectorIfNS_9allocatorIfEEE8allocateEm
0000000102879e4e t __ZNSt3__16vectorIfNS_9allocatorIfEEEC2ERKS3_
000000010287a25a t __ZNSt3__16vectorIfNS_9allocatorIfEEEC2IPfEET_NS_9enable_ifIXaasr21__is_forward_iteratorIS6_EE5valuesr16is_constructibleIfNS_15iterator_traitsIS6_E9referenceEEE5valueES6_E4typeE
000000010288f970 t __ZNSt3__16vectorIhNS_9allocatorIhEEE6assignIPhEENS_9enable_ifIXaasr21__is_forward_iteratorIT_EE5valuesr16is_constructibleIhNS_15iterator_traitsIS7_E9referenceEEE5valueEvE4typeES7_S7_
00000001028fa8ba t __ZNSt3__16vectorIhNS_9allocatorIhEEE6insertIPhEENS_9enable_ifIXaasr21__is_forward_iteratorIT_EE5valuesr16is_constructibleIhNS_15iterator_traitsIS7_E9referenceEEE5valueENS_11__wrap_iterIS5_EEE4typeENSB_IPKhEES7_S7_
00000001028dcb80 t __ZNSt3__16vectorIhNS_9allocatorIhEEE6resizeEm
00000001028fbd68 t __ZNSt3__16vectorIhNS_9allocatorIhEEE8__appendEm
00000001028a9c48 t __ZNSt3__16vectorIhNS_9allocatorIhEEE8allocateEm
00000001028a9bce t __ZNSt3__16vectorIhNS_9allocatorIhEEEC2IPhEET_NS_9enable_ifIXaasr21__is_forward_iteratorIS6_EE5valuesr16is_constructibleIhNS_15iterator_traitsIS6_E9referenceEEE5valueES6_E4typeE
00000001028386a8 t __ZNSt3__16vectorIiNS_9allocatorIiEEE21__push_back_slow_pathIRKiEEvOT_
0000000102858e66 t __ZNSt3__16vectorIiNS_9allocatorIiEEE8allocateEm
0000000102858df4 t __ZNSt3__16vectorIiNS_9allocatorIiEEEC2Em
00000001027d7998 t __ZNSt3__16vectorIyNS_9allocatorIyEEE21__push_back_slow_pathIRKyEEvOT_
00000001028ac558 t __ZNSt3__17__sort3IRPFb13AgDisplayModeS1_EPS1_EEjT0_S6_S6_T_
0000000102857298 t __ZNSt3__17__sort3IRPFbRKN3gml7PGMLVarES4_EPS2_EEjT0_S9_S9_T_
00000001028ac6d9 t __ZNSt3__17__sort4IRPFb13AgDisplayModeS1_EPS1_EEjT0_S6_S6_S6_T_
0000000102857acc t __ZNSt3__17__sort4IRPFbRKN3gml7PGMLVarES4_EPS2_EEjT0_S9_S9_S9_T_
00000001028ac7ee t __ZNSt3__17__sort5IRPFb13AgDisplayModeS1_EPS1_EEjT0_S6_S6_S6_S6_T_
0000000102857fa5 t __ZNSt3__17__sort5IRPFbRKN3gml7PGMLVarES4_EPS2_EEjT0_S9_S9_S9_S9_T_
                 U __ZNSt3__17codecvtIcc11__mbstate_tE2idE
                 U __ZNSt3__17collateIcE2idE
                 U __ZNSt3__18__rs_getEv
                 U __ZNSt3__18ios_base33__set_badbit_and_consider_rethrowEv
                 U __ZNSt3__18ios_base4initEPv
                 U __ZNSt3__18ios_base5clearEj
00000001027b1cd2 t __ZNSt3__19__sift_upIRNS_4lessIN3gml8GridNodeEEENS_11__wrap_iterIPS3_EEEEvT0_S9_T_NS_15iterator_traitsIS9_E15difference_typeE
                 U __ZNSt3__19basic_iosIcNS_11char_traitsIcEEED2Ev
000000010282ad85 t __ZNSt3__19remove_ifINS_11__wrap_iterIPP6ObjectEE12RemoveStoredEET_S7_S7_T0_
000000010280f9bd t __ZNSt3__19remove_ifINS_11__wrap_iterIPP6ObjectEE15RemoveActivatedEET_S7_S7_T0_
00000001028fd190 t __ZNSt3__1plIcNS_11char_traitsIcEENS_9allocatorIcEEEENS_12basic_stringIT_T0_T1_EEPKS6_RKS9_
                 U __ZNSt8bad_castC1Ev
                 U __ZNSt8bad_castD1Ev
                 U __ZSt7nothrow
                 U __ZSt9terminatev
0000000102debbc0 D __ZTI10AgJsonNode
0000000102debd20 D __ZTI11AgDirectory
0000000102decb50 D __ZTI11AgJsonArray
0000000102decb10 D __ZTI11AgJsonValue
0000000102deb848 D __ZTI11AgReferenceI10AgResourceE
0000000102dea4a8 D __ZTI11AgReferenceI11AgTexture2dE
0000000102dea700 D __ZTI11AgReferenceI13AgAudioSourceE
0000000102deb268 D __ZTI11AgReferenceI13AgIndexBufferE
0000000102dea730 D __ZTI11AgReferenceI14AgAudioChannelE
0000000102deb238 D __ZTI11AgReferenceI14AgVertexBufferE
0000000102df4838 D __ZTI11AgReferenceI15AgShaderProgramE
0000000102debd68 D __ZTI11AgReferenceI7AgMountE
0000000102df4778 D __ZTI11AgReferenceI9AgArchiveE
0000000102dec9a8 D __ZTI11AgSingletonI12AgAllocatorsE
0000000102deafd8 D __ZTI11AgSingletonI12AgBusyScreenE
0000000102deafb8 D __ZTI11AgSingletonI12AgFileSystemE
0000000102df4510 D __ZTI11AgSingletonI12AgSteamworksE
0000000102df46b8 D __ZTI11AgSingletonI12AgWorkerPoolE
0000000102deaf58 D __ZTI11AgSingletonI12ButtonImagesE
0000000102deb660 D __ZTI11AgSingletonI13AgUserManagerE
0000000102dea8e8 D __ZTI11AgSingletonI13GBSaveManagerE
0000000102dec838 D __ZTI11AgSingletonI14AgAudioManagerE
0000000102df4850 D __ZTI11AgSingletonI14AgInputManagerE
0000000102deb110 D __ZTI11AgSingletonI15AgDialogManagerE
0000000102debac0 D __ZTI11AgSingletonI15AgPlayerManagerE
0000000102debb90 D __ZTI11AgSingletonI15AgSystemManagerE
0000000102debc78 D __ZTI11AgSingletonI16AgDisplayManagerE
0000000102dec828 D __ZTI11AgSingletonI16AgNetworkManagerE
0000000102dec9f8 D __ZTI11AgSingletonI16AgProfileManagerE
0000000102decbc8 D __ZTI11AgSingletonI16AgSessionManagerE
0000000102deb7c0 D __ZTI11AgSingletonI17AgResourceManagerE
0000000102debb60 D __ZTI11AgSingletonI18AgExceptionHandlerE
0000000102deb390 D __ZTI11AgSingletonI20AgLeaderboardManagerE
0000000102decbe0 D __ZTI11AgSingletonI21AgAchievementsManagerE
0000000102dec818 D __ZTI11AgSingletonI21AgLocalizationManagerE
0000000102df47e0 D __ZTI11AgSingletonI21AgServiceEventManagerE
0000000102dea330 D __ZTI11CCallResultI13SteamWorkshop18CreateItemResult_tE
0000000102dea2e0 D __ZTI11CCallResultI13SteamWorkshop24SteamUGCQueryCompleted_tE
0000000102dea380 D __ZTI11CCallResultI13SteamWorkshop24SubmitItemUpdateResult_tE
0000000102dec9c0 D __ZTI12AgAllocators
0000000102df4890 D __ZTI12AgController
0000000102debbd0 D __ZTI12AgJsonObject
0000000102df46d0 D __ZTI12AgWorkerPool
0000000102df3a90 D __ZTI12LodePNGState
0000000102dea698 D __ZTI12TiXmlVisitor
0000000102deaf70 D __ZTI13AgAudioEffect
0000000102df45a0 D __ZTI13AgDefaultUser
0000000102df4610 D __ZTI13AgIThreadHost
0000000102deb450 D __ZTI13AgLeaderboard
0000000102dea188 D __ZTI13CCallbackBase
0000000102deace0 D __ZTI14AgBufferStreamI8AgBufferI11AgAllocatorIL16AgAllocatorTypes1EEEE
0000000102deab80 D __ZTI14AgBufferStreamI8AgBufferI18AgForwardAllocatorI16AgFrameAllocatorI11AgAllocatorIL16AgAllocatorTypes1EEEEEE
0000000102df47f0 D __ZTI14AgServiceEvent
0000000102df4b60 D __ZTI14AudioStreamJob
0000000102decb90 D __ZTI15AgJsonNullValue
0000000102dec9e0 D __ZTI15AgMacAllocators
0000000102dea470 D __ZTI15AgServiceThread
0000000102deafa0 D __ZTI16AgAudioEffectFFT
0000000102deca60 D __ZTI16AgDefaultProfile
0000000102deb760 D __ZTI16AgServiceCommandI11AgAllocatorIL16AgAllocatorTypes1EE9AgPointerI6AgFileEFvvES6_E
0000000102deb160 D __ZTI16AgServiceCommandI11AgAllocatorIL16AgAllocatorTypes1EE9AgPointerI8AgDialogEFvvES6_E
0000000102deb1b0 D __ZTI16AgServiceCommandI11AgAllocatorIL16AgAllocatorTypes1EEP15AgDialogManagerFv9AgPointerI8AgDialogEES8_E
0000000102deb200 D __ZTI16AgServiceCommandI11AgAllocatorIL16AgAllocatorTypes1EEP15AgDialogManagerFvvES5_E
0000000102debb10 D __ZTI16AgServiceCommandI11AgAllocatorIL16AgAllocatorTypes1EEP15AgPlayerManagerFvvES5_E
0000000102decc40 D __ZTI16AgServiceCommandI11AgAllocatorIL16AgAllocatorTypes1EEvFv25AgAchievementPlatformDataES4_E
0000000102dea590 D __ZTI16AgServiceCommandI18AgForwardAllocatorI16AgFrameAllocatorI11AgAllocatorIL16AgAllocatorTypes1EEEEP11RoomManagerFvvES9_E
0000000102dea5e0 D __ZTI16AgServiceCommandI18AgForwardAllocatorI16AgFrameAllocatorI11AgAllocatorIL16AgAllocatorTypes1EEEEP13SpriteManagerFvvES9_E
0000000102dea0f0 D __ZTI16AgServiceCommandI18AgForwardAllocatorI16AgFrameAllocatorI11AgAllocatorIL16AgAllocatorTypes1EEEEP17GameBakerGraphicsFijES9_E
0000000102dea680 D __ZTI16AgServiceCommandI18AgForwardAllocatorI16AgFrameAllocatorI11AgAllocatorIL16AgAllocatorTypes1EEEEP17GameBakerGraphicsFvjjEFviiEE
0000000102dea140 D __ZTI16AgServiceCommandI18AgForwardAllocatorI16AgFrameAllocatorI11AgAllocatorIL16AgAllocatorTypes1EEEEP17GameBakerGraphicsFvjjiiiES9_E
0000000102dea630 D __ZTI16AgServiceCommandI18AgForwardAllocatorI16AgFrameAllocatorI11AgAllocatorIL16AgAllocatorTypes1EEEEP17GameBakerGraphicsFvvES9_E
0000000102dea540 D __ZTI16AgServiceCommandI18AgForwardAllocatorI16AgFrameAllocatorI11AgAllocatorIL16AgAllocatorTypes1EEEEP18SilverWareRendererFviES9_E
0000000102dea4f0 D __ZTI16AgServiceCommandI18AgForwardAllocatorI16AgFrameAllocatorI11AgAllocatorIL16AgAllocatorTypes1EEEEP18SilverWareRendererFvjRK9AgVector4EFv12AgClearFlagsS9_EE
0000000102dea920 D __ZTI16AgServiceCommandI18AgForwardAllocatorI16AgFrameAllocatorI11AgAllocatorIL16AgAllocatorTypes1EEEEvFvN3gml11EBlendModesES8_S8_S8_ES9_E
0000000102dea790 D __ZTI16AgServiceCommandI18AgForwardAllocatorI16AgFrameAllocatorI11AgAllocatorIL16AgAllocatorTypes1EEEEvFvPN3gml13GMLBackgroundEiiiifffffRKNS7_8GMLColorESC_SC_SC_fEFvS9_iiiifffffiiiifEE
0000000102dea830 D __ZTI16AgServiceCommandI18AgForwardAllocatorI16AgFrameAllocatorI11AgAllocatorIL16AgAllocatorTypes1EEEEvFviES7_E
0000000102dea850 D __ZTI16AgServiceCommandI18AgForwardAllocatorI16AgFrameAllocatorI11AgAllocatorIL16AgAllocatorTypes1EEEEvFviffES7_E
0000000102dea7e0 D __ZTI16AgServiceCommandI18AgForwardAllocatorI16AgFrameAllocatorI11AgAllocatorIL16AgAllocatorTypes1EEEEvFviffffffRKN3gml8GMLColorEfEFviffffffifEE
0000000102dea9d0 D __ZTI16AgServiceCommandI18AgForwardAllocatorI16AgFrameAllocatorI11AgAllocatorIL16AgAllocatorTypes1EEEEvFviiiES7_E
0000000102dea8d0 D __ZTI16AgServiceCommandI18AgForwardAllocatorI16AgFrameAllocatorI11AgAllocatorIL16AgAllocatorTypes1EEEEvFviiiiES7_E
0000000102dead60 D __ZTI16AgServiceCommandI18AgForwardAllocatorI16AgFrameAllocatorI11AgAllocatorIL16AgAllocatorTypes1EEEEvFviiiiddddfES7_E
0000000102dea870 D __ZTI16AgServiceCommandI18AgForwardAllocatorI16AgFrameAllocatorI11AgAllocatorIL16AgAllocatorTypes1EEEEvFvvES7_E
0000000102df3a70 D __ZTI17AgAudioSourceFMOD
0000000102deb810 D __ZTI17AgResourceLoadJob
0000000102debc60 D __ZTI18AgAudioChannelFMOD
0000000102df4960 D __ZTI18AgAudioManagerFMOD
0000000102debb70 D __ZTI18AgExceptionHandler
0000000102debd10 D __ZTI18AgReferencedObject
0000000102deb050 D __ZTI18AgSimpleThreadHost
0000000102deb480 D __ZTI20AgDefaultLeaderboard
0000000102dead50 D __ZTI20AgServiceCommandBase
0000000102df4660 D __ZTI20AgUpdateSystemThread
0000000102df3d40 D __ZTI24AgPlatformResourceShader
0000000102dec890 D __ZTI25AgStandardMouseController
0000000102deb3f0 D __ZTI27AgDefaultLeaderboardManager
0000000102decbb0 D __ZTI27AgPlatformResourceTexture2d
0000000102df48c0 D __ZTI27AgStandardGamepadController
0000000102df3d20 D __ZTI28AgPlatformResourceShaderBase
0000000102dec8e0 D __ZTI28AgStandardKeyboardController
0000000102deb7a0 D __ZTI29AgPlatformResourceIndexBuffer
0000000102deb2a0 D __ZTI30AgPlatformResourceVertexBuffer
0000000102deb370 D __ZTI31AgPlatformResourceShaderProgram
0000000102dec800 D __ZTI33AgPlatformResourceConstantsBuffer
0000000102deb780 D __ZTI33AgPlatformResourceIndexBufferBase
0000000102deb280 D __ZTI34AgPlatformResourceVertexBufferBase
0000000102deb350 D __ZTI35AgPlatformResourceShaderProgramBase
0000000102df4570 D __ZTI6AgUser
0000000102deac10 D __ZTI8AgBufferI11AgAllocatorIL16AgAllocatorTypes1EEE
0000000102deaae0 D __ZTI8AgBufferI18AgForwardAllocatorI16AgFrameAllocatorI11AgAllocatorIL16AgAllocatorTypes1EEEEE
0000000102decad0 D __ZTI8AgShader
0000000102deacb0 D __ZTI8AgStream
0000000102deca30 D __ZTI9AgProfile
0000000102dea290 D __ZTI9CCallbackI13SteamWorkshop15ItemInstalled_tLb0EE
0000000102dea240 D __ZTI9CCallbackI13SteamWorkshop35RemoteStoragePublishedFileDeleted_tLb0EE
0000000102dea1a0 D __ZTI9CCallbackI13SteamWorkshop38RemoteStoragePublishedFileSubscribed_tLb0EE
0000000102dea1f0 D __ZTI9CCallbackI13SteamWorkshop40RemoteStoragePublishedFileUnsubscribed_tLb0EE
0000000102dea048 D __ZTI9ITickable
0000000102dec940 D __ZTI9RenderJob
0000000102deaa40 D __ZTI9TiXmlBase
0000000102debc10 D __ZTIN12AgRenderList15CaptureCallbackE
0000000102deb070 D __ZTIN12AgThreadPool10ThreadHostE
0000000102df4b30 D __ZTIN12AgThreadPool3JobE
0000000102df4b40 D __ZTIN20AgPriorityThreadPool11PriorityJobE
0000000102dea058 D __ZTIN3gml16IGMLIteratorDataE
0000000102dea070 D __ZTIN3gml20ValueGMLIteratorDataE
0000000102dea090 D __ZTIN3gml27InstanceListGMLIteratorDataINS_9GMLObjectEEE
0000000102deb898 D __ZTIN9AgFactoryI10AgResourceE10IAllocatorE
0000000102deb8b0 D __ZTIN9AgFactoryI10AgResourceE12NewAllocatorI11AgTexture2dEE
0000000102deba90 D __ZTIN9AgFactoryI10AgResourceE12NewAllocatorI12AgRenderListEE
0000000102deb9f0 D __ZTIN9AgFactoryI10AgResourceE12NewAllocatorI13AgIndexBufferEE
0000000102deb9a0 D __ZTIN9AgFactoryI10AgResourceE12NewAllocatorI14AgVertexBufferEE
0000000102deb950 D __ZTIN9AgFactoryI10AgResourceE12NewAllocatorI15AgShaderProgramEE
0000000102deba40 D __ZTIN9AgFactoryI10AgResourceE12NewAllocatorI17AgConstantsBufferEE
0000000102deb900 D __ZTIN9AgFactoryI10AgResourceE12NewAllocatorI8AgShaderEE
0000000102df4220 D __ZTINSt3__110__back_refIcEE
0000000102df3f00 D __ZTINSt3__110__l_anchorIcEE
0000000102df3f50 D __ZTINSt3__110__r_anchorIcEE
0000000102df4450 D __ZTINSt3__111__alternateIcEE
0000000102df3da0 D __ZTINSt3__111__end_stateIcEE
0000000102df3ff0 D __ZTINSt3__111__lookaheadIcNS_12regex_traitsIcEEEE
0000000102df44f0 D __ZTINSt3__111__match_anyIcEE
                 U __ZTINSt3__111regex_errorE
0000000102df4130 D __ZTINSt3__112__match_charIcEE
0000000102df3e80 D __ZTINSt3__113__empty_stateIcEE
0000000102df3c00 D __ZTINSt3__113basic_filebufIcNS_11char_traitsIcEEEE
                 U __ZTINSt3__113basic_istreamIcNS_11char_traitsIcEEEE
                 U __ZTINSt3__113basic_ostreamIcNS_11char_traitsIcEEEE
0000000102df3b60 D __ZTINSt3__114basic_ifstreamIcNS_11char_traitsIcEEEE
0000000102df3ce0 D __ZTINSt3__114basic_ofstreamIcNS_11char_traitsIcEEEE
0000000102df3e40 D __ZTINSt3__115__has_one_stateIcEE
0000000102df3fa0 D __ZTINSt3__115__word_boundaryIcNS_12regex_traitsIcEEEE
                 U __ZTINSt3__115basic_streambufIcNS_11char_traitsIcEEEE
0000000102df4ae0 D __ZTINSt3__115basic_stringbufIcNS_11char_traitsIcEENS_9allocatorIcEEEE
0000000102df4180 D __ZTINSt3__116__back_ref_icaseIcNS_12regex_traitsIcEEEE
0000000102df3e60 D __ZTINSt3__116__owns_one_stateIcEE
0000000102df4360 D __ZTINSt3__117__owns_two_statesIcEE
0000000102df4400 D __ZTINSt3__117__repeat_one_loopIcEE
0000000102df41d0 D __ZTINSt3__118__back_ref_collateIcNS_12regex_traitsIcEEEE
0000000102df4090 D __ZTINSt3__118__match_char_icaseIcNS_12regex_traitsIcEEEE
                 U __ZTINSt3__119__shared_weak_countE
0000000102df4a40 D __ZTINSt3__119basic_ostringstreamIcNS_11char_traitsIcEENS_9allocatorIcEEEE
0000000102df4270 D __ZTINSt3__120__bracket_expressionIcNS_12regex_traitsIcEEEE
0000000102df40e0 D __ZTINSt3__120__match_char_collateIcNS_12regex_traitsIcEEEE
0000000102df3df0 D __ZTINSt3__120__shared_ptr_pointerIPNS_13__empty_stateIcEENS_14default_deleteIS2_EENS_9allocatorIS2_EEEE
0000000102df44a0 D __ZTINSt3__121__empty_non_own_stateIcEE
0000000102df4040 D __ZTINSt3__123__match_any_but_newlineIcEE
0000000102df4310 D __ZTINSt3__126__end_marked_subexpressionIcEE
0000000102df42c0 D __ZTINSt3__128__begin_marked_subexpressionIcEE
0000000102df4380 D __ZTINSt3__16__loopIcEE
0000000102df3d88 D __ZTINSt3__16__nodeIcEE
                 U __ZTIPKc
                 U __ZTISt8bad_cast
                 U __ZTIi
0000000102cc3830 S __ZTS10AgJsonNode
0000000102cc39c0 S __ZTS11AgDirectory
0000000102cc424b S __ZTS11AgJsonArray
0000000102cc4230 S __ZTS11AgJsonValue
0000000102cc33c0 S __ZTS11AgReferenceI10AgResourceE
0000000102cc0190 S __ZTS11AgReferenceI11AgTexture2dE
0000000102cc0600 S __ZTS11AgReferenceI13AgAudioSourceE
0000000102cc2b90 S __ZTS11AgReferenceI13AgIndexBufferE
0000000102cc0620 S __ZTS11AgReferenceI14AgAudioChannelE
0000000102cc2b70 S __ZTS11AgReferenceI14AgVertexBufferE
0000000102cc60e0 S __ZTS11AgReferenceI15AgShaderProgramE
0000000102cc39f0 S __ZTS11AgReferenceI7AgMountE
0000000102cc5fe0 S __ZTS11AgReferenceI9AgArchiveE
0000000102cc3d20 S __ZTS11AgSingletonI12AgAllocatorsE
0000000102cc2900 S __ZTS11AgSingletonI12AgBusyScreenE
0000000102cc28e0 S __ZTS11AgSingletonI12AgFileSystemE
0000000102cc5c70 S __ZTS11AgSingletonI12AgSteamworksE
0000000102cc5f20 S __ZTS11AgSingletonI12AgWorkerPoolE
0000000102cc24a0 S __ZTS11AgSingletonI12ButtonImagesE
0000000102cc2dd0 S __ZTS11AgSingletonI13AgUserManagerE
0000000102cc13d0 S __ZTS11AgSingletonI13GBSaveManagerE
0000000102cc3b70 S __ZTS11AgSingletonI14AgAudioManagerE
0000000102cc6130 S __ZTS11AgSingletonI14AgInputManagerE
0000000102cc2a00 S __ZTS11AgSingletonI15AgDialogManagerE
0000000102cc35f0 S __ZTS11AgSingletonI15AgPlayerManagerE
0000000102cc3800 S __ZTS11AgSingletonI15AgSystemManagerE
0000000102cc3970 S __ZTS11AgSingletonI16AgDisplayManagerE
0000000102cc3b10 S __ZTS11AgSingletonI16AgNetworkManagerE
0000000102cc3da0 S __ZTS11AgSingletonI16AgProfileManagerE
0000000102cc4350 S __ZTS11AgSingletonI16AgSessionManagerE
0000000102cc3370 S __ZTS11AgSingletonI17AgResourceManagerE
0000000102cc3730 S __ZTS11AgSingletonI18AgExceptionHandlerE
0000000102cc2d20 S __ZTS11AgSingletonI20AgLeaderboardManagerE
0000000102cc4560 S __ZTS11AgSingletonI21AgAchievementsManagerE
0000000102cc3a80 S __ZTS11AgSingletonI21AgLocalizationManagerE
0000000102cc6030 S __ZTS11AgSingletonI21AgServiceEventManagerE
0000000102cbfdd0 S __ZTS11CCallResultI13SteamWorkshop18CreateItemResult_tE
0000000102cbfd90 S __ZTS11CCallResultI13SteamWorkshop24SteamUGCQueryCompleted_tE
0000000102cbfe10 S __ZTS11CCallResultI13SteamWorkshop24SubmitItemUpdateResult_tE
0000000102cc3d02 S __ZTS12AgAllocators
0000000102cc4c90 S __ZTS12AgController
0000000102cc3821 S __ZTS12AgJsonObject
0000000102cc5f07 S __ZTS12AgWorkerPool
0000000102cc54b0 S __ZTS12LodePNGState
0000000102cc05e1 S __ZTS12TiXmlVisitor
0000000102cc2513 S __ZTS13AgAudioEffect
0000000102cc5cb0 S __ZTS13AgDefaultUser
0000000102cc5ee0 S __ZTS13AgIThreadHost
0000000102cc2d87 S __ZTS13AgLeaderboard
0000000102cbfc98 S __ZTS13CCallbackBase
0000000102cc2300 S __ZTS14AgBufferStreamI8AgBufferI11AgAllocatorIL16AgAllocatorTypes1EEEE
0000000102cc2260 S __ZTS14AgBufferStreamI8AgBufferI18AgForwardAllocatorI16AgFrameAllocatorI11AgAllocatorIL16AgAllocatorTypes1EEEEEE
0000000102cc6060 S __ZTS14AgServiceEvent
0000000102cc6330 S __ZTS14AudioStreamJob
0000000102cc4260 S __ZTS15AgJsonNullValue
0000000102cc3cf0 S __ZTS15AgMacAllocators
0000000102cc0170 S __ZTS15AgServiceThread
0000000102cc2500 S __ZTS16AgAudioEffectFFT
0000000102cc3df0 S __ZTS16AgDefaultProfile
0000000102cc3250 S __ZTS16AgServiceCommandI11AgAllocatorIL16AgAllocatorTypes1EE9AgPointerI6AgFileEFvvES6_E
0000000102cc2a30 S __ZTS16AgServiceCommandI11AgAllocatorIL16AgAllocatorTypes1EE9AgPointerI8AgDialogEFvvES6_E
0000000102cc2a90 S __ZTS16AgServiceCommandI11AgAllocatorIL16AgAllocatorTypes1EEP15AgDialogManagerFv9AgPointerI8AgDialogEES8_E
0000000102cc2b00 S __ZTS16AgServiceCommandI11AgAllocatorIL16AgAllocatorTypes1EEP15AgDialogManagerFvvES5_E
0000000102cc3620 S __ZTS16AgServiceCommandI11AgAllocatorIL16AgAllocatorTypes1EEP15AgPlayerManagerFvvES5_E
0000000102cc4590 S __ZTS16AgServiceCommandI11AgAllocatorIL16AgAllocatorTypes1EEvFv25AgAchievementPlatformDataES4_E
0000000102cc03c0 S __ZTS16AgServiceCommandI18AgForwardAllocatorI16AgFrameAllocatorI11AgAllocatorIL16AgAllocatorTypes1EEEEP11RoomManagerFvvES9_E
0000000102cc0440 S __ZTS16AgServiceCommandI18AgForwardAllocatorI16AgFrameAllocatorI11AgAllocatorIL16AgAllocatorTypes1EEEEP13SpriteManagerFvvES9_E
0000000102cbfb10 S __ZTS16AgServiceCommandI18AgForwardAllocatorI16AgFrameAllocatorI11AgAllocatorIL16AgAllocatorTypes1EEEEP17GameBakerGraphicsFijES9_E
0000000102cc0540 S __ZTS16AgServiceCommandI18AgForwardAllocatorI16AgFrameAllocatorI11AgAllocatorIL16AgAllocatorTypes1EEEEP17GameBakerGraphicsFvjjEFviiEE
0000000102cbfb90 S __ZTS16AgServiceCommandI18AgForwardAllocatorI16AgFrameAllocatorI11AgAllocatorIL16AgAllocatorTypes1EEEEP17GameBakerGraphicsFvjjiiiES9_E
0000000102cc04c0 S __ZTS16AgServiceCommandI18AgForwardAllocatorI16AgFrameAllocatorI11AgAllocatorIL16AgAllocatorTypes1EEEEP17GameBakerGraphicsFvvES9_E
0000000102cc0340 S __ZTS16AgServiceCommandI18AgForwardAllocatorI16AgFrameAllocatorI11AgAllocatorIL16AgAllocatorTypes1EEEEP18SilverWareRendererFviES9_E
0000000102cc02a0 S __ZTS16AgServiceCommandI18AgForwardAllocatorI16AgFrameAllocatorI11AgAllocatorIL16AgAllocatorTypes1EEEEP18SilverWareRendererFvjRK9AgVector4EFv12AgClearFlagsS9_EE
0000000102cc1400 S __ZTS16AgServiceCommandI18AgForwardAllocatorI16AgFrameAllocatorI11AgAllocatorIL16AgAllocatorTypes1EEEEvFvN3gml11EBlendModesES8_S8_S8_ES9_E
0000000102cc0660 S __ZTS16AgServiceCommandI18AgForwardAllocatorI16AgFrameAllocatorI11AgAllocatorIL16AgAllocatorTypes1EEEEvFvPN3gml13GMLBackgroundEiiiifffffRKNS7_8GMLColorESC_SC_SC_fEFvS9_iiiifffffiiiifEE
0000000102cc07f0 S __ZTS16AgServiceCommandI18AgForwardAllocatorI16AgFrameAllocatorI11AgAllocatorIL16AgAllocatorTypes1EEEEvFviES7_E
0000000102cc0860 S __ZTS16AgServiceCommandI18AgForwardAllocatorI16AgFrameAllocatorI11AgAllocatorIL16AgAllocatorTypes1EEEEvFviffES7_E
0000000102cc0760 S __ZTS16AgServiceCommandI18AgForwardAllocatorI16AgFrameAllocatorI11AgAllocatorIL16AgAllocatorTypes1EEEEvFviffffffRKN3gml8GMLColorEfEFviffffffifEE
0000000102cc1490 S __ZTS16AgServiceCommandI18AgForwardAllocatorI16AgFrameAllocatorI11AgAllocatorIL16AgAllocatorTypes1EEEEvFviiiES7_E
0000000102cc0940 S __ZTS16AgServiceCommandI18AgForwardAllocatorI16AgFrameAllocatorI11AgAllocatorIL16AgAllocatorTypes1EEEEvFviiiiES7_E
0000000102cc2360 S __ZTS16AgServiceCommandI18AgForwardAllocatorI16AgFrameAllocatorI11AgAllocatorIL16AgAllocatorTypes1EEEEvFviiiiddddfES7_E
0000000102cc08d0 S __ZTS16AgServiceCommandI18AgForwardAllocatorI16AgFrameAllocatorI11AgAllocatorIL16AgAllocatorTypes1EEEEvFvvES7_E
0000000102cc4cc0 S __ZTS17AgAudioSourceFMOD
0000000102cc33a0 S __ZTS17AgResourceLoadJob
0000000102cc38e0 S __ZTS18AgAudioChannelFMOD
0000000102cc6270 S __ZTS18AgAudioManagerFMOD
0000000102cc3710 S __ZTS18AgExceptionHandler
0000000102cc39d0 S __ZTS18AgReferencedObject
0000000102cc2990 S __ZTS18AgSimpleThreadHost
0000000102cc2d70 S __ZTS20AgDefaultLeaderboard
0000000102cc23e0 S __ZTS20AgServiceCommandBase
0000000102cc5ef0 S __ZTS20AgUpdateSystemThread
0000000102cc5590 S __ZTS24AgPlatformResourceShader
0000000102cc3c30 S __ZTS25AgStandardMouseController
0000000102cc2d50 S __ZTS27AgDefaultLeaderboardManager
0000000102cc42f0 S __ZTS27AgPlatformResourceTexture2d
0000000102cc6150 S __ZTS27AgStandardGamepadController
0000000102cc55b0 S __ZTS28AgPlatformResourceShaderBase
0000000102cc3c50 S __ZTS28AgStandardKeyboardController
0000000102cc3300 S __ZTS29AgPlatformResourceIndexBuffer
0000000102cc2bd0 S __ZTS30AgPlatformResourceVertexBuffer
0000000102cc2c60 S __ZTS31AgPlatformResourceShaderProgram
0000000102cc3a30 S __ZTS33AgPlatformResourceConstantsBuffer
0000000102cc3320 S __ZTS33AgPlatformResourceIndexBufferBase
0000000102cc2c00 S __ZTS34AgPlatformResourceVertexBufferBase
0000000102cc2c30 S __ZTS35AgPlatformResourceShaderProgramBase
0000000102cc5cc0 S __ZTS6AgUser
0000000102cc22d0 S __ZTS8AgBufferI11AgAllocatorIL16AgAllocatorTypes1EEE
0000000102cc2200 S __ZTS8AgBufferI18AgForwardAllocatorI16AgFrameAllocatorI11AgAllocatorIL16AgAllocatorTypes1EEEEE
0000000102cc3e10 S __ZTS8AgShader
0000000102cc3240 S __ZTS8AgStream
0000000102cc3e03 S __ZTS9AgProfile
0000000102cbfd50 S __ZTS9CCallbackI13SteamWorkshop15ItemInstalled_tLb0EE
0000000102cbfd00 S __ZTS9CCallbackI13SteamWorkshop35RemoteStoragePublishedFileDeleted_tLb0EE
0000000102cbfc50 S __ZTS9CCallbackI13SteamWorkshop38RemoteStoragePublishedFileSubscribed_tLb0EE
0000000102cbfcb0 S __ZTS9CCallbackI13SteamWorkshop40RemoteStoragePublishedFileUnsubscribed_tLb0EE
0000000102cbf9f9 S __ZTS9ITickable
0000000102cc3c80 S __ZTS9RenderJob
0000000102cc1971 S __ZTS9TiXmlBase
0000000102cc38a0 S __ZTSN12AgRenderList15CaptureCallbackE
0000000102cc2970 S __ZTSN12AgThreadPool10ThreadHostE
0000000102cc3c90 S __ZTSN12AgThreadPool3JobE
0000000102cc6350 S __ZTSN20AgPriorityThreadPool11PriorityJobE
0000000102cbfa40 S __ZTSN3gml16IGMLIteratorDataE
0000000102cbfa20 S __ZTSN3gml20ValueGMLIteratorDataE
0000000102cbfa60 S __ZTSN3gml27InstanceListGMLIteratorDataINS_9GMLObjectEEE
0000000102cc3420 S __ZTSN9AgFactoryI10AgResourceE10IAllocatorE
0000000102cc33e0 S __ZTSN9AgFactoryI10AgResourceE12NewAllocatorI11AgTexture2dEE
0000000102cc3590 S __ZTSN9AgFactoryI10AgResourceE12NewAllocatorI12AgRenderListEE
0000000102cc3510 S __ZTSN9AgFactoryI10AgResourceE12NewAllocatorI13AgIndexBufferEE
0000000102cc34d0 S __ZTSN9AgFactoryI10AgResourceE12NewAllocatorI14AgVertexBufferEE
0000000102cc3490 S __ZTSN9AgFactoryI10AgResourceE12NewAllocatorI15AgShaderProgramEE
0000000102cc3550 S __ZTSN9AgFactoryI10AgResourceE12NewAllocatorI17AgConstantsBufferEE
0000000102cc3450 S __ZTSN9AgFactoryI10AgResourceE12NewAllocatorI8AgShaderEE
0000000102cc5920 S __ZTSNSt3__110__back_refIcEE
0000000102cc5720 S __ZTSNSt3__110__l_anchorIcEE
0000000102cc5740 S __ZTSNSt3__110__r_anchorIcEE
0000000102cc5a40 S __ZTSNSt3__111__alternateIcEE
0000000102cc55d0 S __ZTSNSt3__111__end_stateIcEE
0000000102cc57a0 S __ZTSNSt3__111__lookaheadIcNS_12regex_traitsIcEEEE
0000000102cc5a90 S __ZTSNSt3__111__match_anyIcEE
0000000102cc5880 S __ZTSNSt3__112__match_charIcEE
0000000102cc56c0 S __ZTSNSt3__113__empty_stateIcEE
0000000102cc54f0 S __ZTSNSt3__113basic_filebufIcNS_11char_traitsIcEEEE
0000000102cc54c0 S __ZTSNSt3__114basic_ifstreamIcNS_11char_traitsIcEEEE
0000000102cc5520 S __ZTSNSt3__114basic_ofstreamIcNS_11char_traitsIcEEEE
0000000102cc5680 S __ZTSNSt3__114default_deleteINS_13__empty_stateIcEEEE
0000000102cc5700 S __ZTSNSt3__115__has_one_stateIcEE
0000000102cc5760 S __ZTSNSt3__115__word_boundaryIcNS_12regex_traitsIcEEEE
0000000102cc62e0 S __ZTSNSt3__115basic_stringbufIcNS_11char_traitsIcEENS_9allocatorIcEEEE
0000000102cc58a0 S __ZTSNSt3__116__back_ref_icaseIcNS_12regex_traitsIcEEEE
0000000102cc56e0 S __ZTSNSt3__116__owns_one_stateIcEE
0000000102cc5a00 S __ZTSNSt3__117__owns_two_statesIcEE
0000000102cc5a20 S __ZTSNSt3__117__repeat_one_loopIcEE
0000000102cc58e0 S __ZTSNSt3__118__back_ref_collateIcNS_12regex_traitsIcEEEE
0000000102cc5800 S __ZTSNSt3__118__match_char_icaseIcNS_12regex_traitsIcEEEE
0000000102cc6290 S __ZTSNSt3__119basic_ostringstreamIcNS_11char_traitsIcEENS_9allocatorIcEEEE
0000000102cc5940 S __ZTSNSt3__120__bracket_expressionIcNS_12regex_traitsIcEEEE
0000000102cc5840 S __ZTSNSt3__120__match_char_collateIcNS_12regex_traitsIcEEEE
0000000102cc5610 S __ZTSNSt3__120__shared_ptr_pointerIPNS_13__empty_stateIcEENS_14default_deleteIS2_EENS_9allocatorIS2_EEEE
0000000102cc5a60 S __ZTSNSt3__121__empty_non_own_stateIcEE
0000000102cc57d0 S __ZTSNSt3__123__match_any_but_newlineIcEE
0000000102cc59b0 S __ZTSNSt3__126__end_marked_subexpressionIcEE
0000000102cc5980 S __ZTSNSt3__128__begin_marked_subexpressionIcEE
0000000102cc59e0 S __ZTSNSt3__16__loopIcEE
0000000102cc55f0 S __ZTSNSt3__16__nodeIcEE
                 U __ZTVN10__cxxabiv117__class_type_infoE
                 U __ZTVN10__cxxabiv120__si_class_type_infoE
                 U __ZTVN10__cxxabiv121__vmi_class_type_infoE
                 U __ZTv0_n24_NSt3__113basic_istreamIcNS_11char_traitsIcEEED0Ev
                 U __ZTv0_n24_NSt3__113basic_istreamIcNS_11char_traitsIcEEED1Ev
                 U __ZTv0_n24_NSt3__113basic_ostreamIcNS_11char_traitsIcEEED0Ev
                 U __ZTv0_n24_NSt3__113basic_ostreamIcNS_11char_traitsIcEEED1Ev
0000000102dea740 D __ZZN11GridCellSet7GetPoolEvE6s_pool
0000000102dea7d0 D __ZZN15GameBakerMemory12mallocObjectEvE21forceInitializeMemory
0000000102dead10 D __ZZN15GameBakerMemory13mallocPGMLVarEvE21forceInitializeMemory
0000000102dead00 D __ZZN15GameBakerMemory14mallocGMLValueEvE21forceInitializeMemory
0000000102dea6c8 D __ZZN15GameBakerMemory17mallocVarPointersEvE21forceInitializeMemory
0000000102dea6b8 D __ZZN15GameBakerMemory20mallocObjectInstanceEvE21forceInitializeMemory
0000000102decbf0 D __ZZN16AgRingBufferImplI25AgAchievementPlatformData7AgMutexS1_E3popEPS0_jE4zero
0000000102debaa8 D __ZZN16AgRingBufferImplI9AgPointerI10AgResourceE7AgMutexS3_E3popEPS2_jE4zero
0000000102deb4d0 D __ZZN16AgRingBufferImplIN20AgLeaderboardManager17StoreRankingEntryEviE3popEPS1_jE4zero
0000000102deb5e8 D __ZZN16AgRingBufferImplIN20AgLeaderboardManager17StoreRankingEntryEviE9enumerateI28SerializeStoreQueuePredicateEEjRT_iiE4zero
0000000102deb548 D __ZZN16AgRingBufferImplIN20AgLeaderboardManager17StoreRankingEntryEviE9enumerateI29CompleteStoreRankingPredicateEEjRT_iiE4zero
0000000102deb0f0 D __ZZN16AgRingBufferImplIPN12AgThreadPool3JobE7AgMutexS3_E3popEPS2_jE4zero
0000000102deb100 D __ZZN16AgRingBufferImplIPN12AgThreadPool3JobE7AgMutexS3_E3popI20GetPriorityPredicateEEiRT_RS2_E4zero
0000000102deb0f8 D __ZZN16AgRingBufferImplIPN12AgThreadPool3JobE7AgMutexS3_E9enumerateI18CancelJobPredicateEEjRT_iiE4zero
0000000102deb0d0 D __ZZN16AgRingBufferImplIPN12AgThreadPool3JobE7AgMutexS3_E9enumerateI20FindJobByIdPredicateEEjRT_iiE4zero
0000000102deb0e8 D __ZZN16AgRingBufferImplIPN12AgThreadPool3JobE7AgMutexS3_E9enumerateI21GetRemoveJobPredicateEEjRT_iiE4zero
0000000102deb0d8 D __ZZN16AgRingBufferImplIPN12AgThreadPool3JobE7AgMutexS3_E9enumerateI25FindJobByGroupIdPredicateEEjRT_iiE4zero
0000000102df4b80 D __ZZN16AgRingBufferImplIPN12AgThreadPool3JobE7AgMutexS3_E9enumerateI28FileIDMatchesCancelPredicateEEjRT_iiE4zero
0000000102deb0e0 D __ZZN16AgRingBufferImplIPN12AgThreadPool3JobE7AgMutexS3_E9enumerateINS0_20CompleteJobPredicateEEEjRT_iiE4zero
0000000102df4508 D __ZZN31AgPlatformResourceTexture2dBase9getLoaderEvE6loader
0000000102dea900 D __ZZN3gml6randomERKNS_7PGMLVarEE15oneOverRAND_MAX
0000000102dea038 D __ZZNK3gml8GridNode8estimateEiiE2xd
0000000102dea03c D __ZZNK3gml8GridNode8estimateEiiE2yd
                 U __ZdaPv
                 U __ZdlPv
                 U __Znam
                 U __Znwm
                 U __ZnwmRKSt9nothrow_t
                 U ___CFConstantStringClassReference
                 U ___assert_rtn
                 U ___bzero
                 U ___cxa_allocate_exception
                 U ___cxa_atexit
                 U ___cxa_begin_catch
                 U ___cxa_end_catch
                 U ___cxa_free_exception
                 U ___cxa_guard_abort
                 U ___cxa_guard_acquire
                 U ___cxa_guard_release
                 U ___cxa_pure_virtual
                 U ___cxa_rethrow
                 U ___cxa_throw
                 U ___error
                 U ___gxx_personality_v0
                 U ___maskrune
                 U ___memcpy_chk
                 U ___sprintf_chk
                 U ___stack_chk_fail
                 U ___stack_chk_guard
                 U ___stderrp
                 U ___tolower
                 U __dispatch_main_q
                 U __dyld_register_func_for_add_image
0000000100000000 T __mh_execute_header
                 U __objc_empty_cache
                 U __objc_empty_vtable
                 U _abort
                 U _acosf
                 U _adler32
                 U _asprintf
                 U _atan2
                 U _atan2f
                 U _atof
                 U _atoi
                 U _bzero
                 U _calloc
                 U _ceil
                 U _ceilf
                 U _class_addMethod
                 U _class_addProperty
                 U _class_addProtocol
                 U _class_getInstanceMethod
                 U _class_getInstanceSize
                 U _class_getInstanceVariable
                 U _class_getIvarLayout
                 U _class_getName
                 U _class_getSuperclass
                 U _class_isMetaClass
                 U _class_replaceMethod
                 U _class_respondsToSelector
                 U _clock
                 U _closedir
                 U _cos
                 U _cosf
                 U _crc32
                 U _deflate
                 U _deflateEnd
                 U _deflateInit2_
                 U _deflateReset
                 U _dispatch_async
                 U _dispatch_release
                 U _dispatch_semaphore_create
                 U _dispatch_semaphore_signal
                 U _dispatch_semaphore_wait
                 U _dispatch_sync
                 U _dispatch_time
                 U _div
                 U _exit
                 U _fclose
                 U _ferror
                 U _fflush
                 U _floor
                 U _floorf
                 U _fmod
                 U _fmodf
                 U _fopen
                 U _fprintf
                 U _fputc
                 U _fputs
                 U _fread
                 U _free
                 U _frexp
                 U _fseek
                 U _fseeko
                 U _ftell
                 U _ftello
                 U _fwrite
                 U _getenv
                 U _glActiveTexture
                 U _glAttachShader
                 U _glBindAttribLocation
                 U _glBindBuffer
                 U _glBindFramebufferEXT
                 U _glBindRenderbufferEXT
                 U _glBindTexture
                 U _glBindVertexArray
                 U _glBlendEquation
                 U _glBlendFuncSeparate
                 U _glBlitFramebuffer
                 U _glBufferData
                 U _glBufferSubData
                 U _glCheckFramebufferStatus
                 U _glClear
                 U _glClearColor
                 U _glClearDepth
                 U _glClearStencil
                 U _glCompileShader
                 U _glCreateProgram
                 U _glCreateShader
                 U _glDeleteBuffers
                 U _glDeleteFramebuffersEXT
                 U _glDeleteProgram
                 U _glDeleteShader
                 U _glDeleteTextures
                 U _glDeleteVertexArrays
                 U _glDepthFunc
                 U _glDepthMask
                 U _glDisable
                 U _glDisableVertexAttribArray
                 U _glDrawArrays
                 U _glDrawElements
                 U _glEnable
                 U _glEnableVertexAttribArray
                 U _glFramebufferRenderbufferEXT
                 U _glFramebufferTexture2DEXT
                 U _glFrontFace
                 U _glGenBuffers
                 U _glGenFramebuffersEXT
                 U _glGenRenderbuffersEXT
                 U _glGenTextures
                 U _glGenVertexArrays
                 U _glGenerateMipmap
                 U _glGetActiveUniform
                 U _glGetIntegerv
                 U _glGetProgramInfoLog
                 U _glGetProgramiv
                 U _glGetShaderInfoLog
                 U _glGetShaderiv
                 U _glGetTexImage
                 U _glGetUniformLocation
                 U _glLinkProgram
                 U _glPixelStorei
                 U _glReadBuffer
                 U _glReadPixels
                 U _glRenderbufferStorageEXT
                 U _glRenderbufferStorageMultisampleEXT
                 U _glScissor
                 U _glShaderSource
                 U _glStencilFunc
                 U _glStencilMask
                 U _glStencilOp
                 U _glTexImage2D
                 U _glTexImage2DMultisample
                 U _glTexParameteri
                 U _glTexSubImage2D
                 U _glUniform1fv
                 U _glUniform1i
                 U _glUniform2fv
                 U _glUniform3fv
                 U _glUniform4fv
                 U _glUniformMatrix2fv
                 U _glUniformMatrix3fv
                 U _glUniformMatrix4fv
                 U _glUseProgram
                 U _glValidateProgram
                 U _glVertexAttribPointer
                 U _glViewport
                 U _gmtime
                 U _hash_create
                 U _hash_search
                 U _inflate
                 U _inflateEnd
                 U _inflateInit_
                 U _inflateReset
                 U _ivar_getName
                 U _ivar_getOffset
                 U _kCFCoreFoundationVersionNumber
                 U _localtime
                 U _longjmp
                 U _mach_absolute_time
                 U _mach_timebase_info
                 U _malloc
                 U _memchr
                 U _memcmp
                 U _memcpy
                 U _memmove
                 U _memset
                 U _memset_pattern16
                 U _method_setImplementation
                 U _mkdir
                 U _modf
                 U _objc_allocateClassPair
                 U _objc_autoreleasePoolPop
                 U _objc_autoreleasePoolPush
                 U _objc_collectingEnabled
                 U _objc_constructInstance
                 U _objc_copyClassNamesForImage
                 U _objc_getClass
                 U _objc_getMetaClass
                 U _objc_getProtocol
                 U _objc_getRequiredClass
                 U _objc_initializeClassPair
                 U _objc_lookUpClass
                 U _objc_msgSend
                 U _objc_msgSendSuper2
                 U _objc_msgSend_stret
                 U _objc_readClassPair
                 U _objc_registerClassPair
                 U _objc_retain
                 U _object_getClass
                 U _object_getIndexedIvars
                 U _object_getIvar
                 U _object_setIvar
                 U _opendir$INODE64
                 U _pow
                 U _powf
                 U _property_copyAttributeList
                 U _protocol_getMethodDescription
                 U _protocol_getName
                 U _pthread_cond_broadcast
                 U _pthread_cond_destroy
                 U _pthread_cond_init
                 U _pthread_cond_timedwait
                 U _pthread_cond_wait
                 U _pthread_create
                 U _pthread_getschedparam
                 U _pthread_getspecific
                 U _pthread_mutex_destroy
                 U _pthread_mutex_init
                 U _pthread_mutex_lock
                 U _pthread_mutex_unlock
                 U _pthread_mutexattr_destroy
                 U _pthread_mutexattr_init
                 U _pthread_mutexattr_setprotocol
                 U _pthread_mutexattr_settype
                 U _pthread_self
                 U _pthread_setschedparam
                 U _pthread_setspecific
                 U _qsort
                 U _rand
                 U _readdir$INODE64
                 U _realloc
                 U _remove
                 U _rename
                 U _rewind
                 U _rmdir
                 U _sel_getUid
                 U _setjmp
                 U _sin
                 U _sinf
                 U _snprintf
                 U _sprintf
                 U _srand
                 U _sscanf
                 U _stat$INODE64
                 U _strcat
                 U _strchr
                 U _strcmp
                 U _strcpy
                 U _strerror
                 U _strlen
                 U _strncasecmp
                 U _strncmp
                 U _strncpy
                 U _strrchr
                 U _strstr
                 U _strtoull
                 U _tan
                 U _time
                 U _tmpfile
                 U _usleep
                 U _uuid_generate_random
                 U _wcslen
                 U _wcstombs
                 U dyld_stub_binder
