nm -g HotlineMiami2 
                 U _CFArrayGetCount
                 U _CFArrayGetValueAtIndex
                 U _CFStringGetCStringPtr
                 U _CGDisplayCapture
                 U _CGDisplayCopyAllDisplayModes
                 U _CGDisplayCopyDisplayMode
                 U _CGDisplayHideCursor
                 U _CGDisplayModeGetHeight
                 U _CGDisplayModeGetRefreshRate
                 U _CGDisplayModeGetWidth
                 U _CGDisplayRelease
                 U _CGDisplaySetDisplayMode
                 U _CGDisplayShowCursor
                 U _CGLDisable
                 U _CGLEnable
                 U _CGLFlushDrawable
                 U _CGLLockContext
                 U _CGLSetParameter
                 U _CGLUnlockContext
                 U _CGMainDisplayID
                 U _CGWarpMouseCursorPosition
                 U _CVDisplayLinkCreateWithActiveCGDisplays
                 U _CVDisplayLinkRelease
                 U _CVDisplayLinkSetCurrentCGDisplayFromOpenGLContext
                 U _CVDisplayLinkSetOutputCallback
                 U _CVDisplayLinkStart
                 U _CVDisplayLinkStop
                 U _FMOD_System_Create
                 U _NSApp
                 U _NSApplicationMain
                 U _NSLog
                 U _OBJC_CLASS_$_NSBundle
                 U _OBJC_CLASS_$_NSCursor
                 U _OBJC_CLASS_$_NSFileManager
                 U _OBJC_CLASS_$_NSMenu
                 U _OBJC_CLASS_$_NSObject
                 U _OBJC_CLASS_$_NSOpenGLContext
                 U _OBJC_CLASS_$_NSOpenGLPixelFormat
                 U _OBJC_CLASS_$_NSOpenGLView
                 U _OBJC_CLASS_$_NSString
                 U _OBJC_CLASS_$_NSThread
                 U _OBJC_CLASS_$_NSWindow
                 U _OBJC_CLASS_$_NSWindowController
                 U _OBJC_METACLASS_$_NSObject
                 U _OBJC_METACLASS_$_NSOpenGLView
                 U _OBJC_METACLASS_$_NSWindowController
                 U _OSAtomicAdd32Barrier
                 U _OSAtomicCompareAndSwap32Barrier
                 U _OSAtomicCompareAndSwapPtrBarrier
                 U _SDL_GameControllerAddMappingsFromRW
                 U _SDL_GameControllerClose
                 U _SDL_GameControllerGetAxis
                 U _SDL_GameControllerGetButton
                 U _SDL_GameControllerGetJoystick
                 U _SDL_GameControllerOpen
                 U _SDL_GameControllerUpdate
                 U _SDL_GetKeyName
                 U _SDL_HapticClose
                 U _SDL_HapticOpenFromJoystick
                 U _SDL_HapticRumbleInit
                 U _SDL_HapticRumblePlay
                 U _SDL_HapticRumbleStop
                 U _SDL_Init
                 U _SDL_InitSubSystem
                 U _SDL_JoystickGetAttached
                 U _SDL_JoystickGetGUID
                 U _SDL_JoystickGetGUIDString
                 U _SDL_NumJoysticks
                 U _SDL_RWFromMem
                 U _SDL_WasInit
                 U _SteamAPI_Init
                 U _SteamAPI_RegisterCallResult
                 U _SteamAPI_RegisterCallback
                 U _SteamAPI_RestartAppIfNecessary
                 U _SteamAPI_RunCallbacks
                 U _SteamAPI_Shutdown
                 U _SteamAPI_UnregisterCallResult
                 U _SteamAPI_UnregisterCallback
                 U _SteamFriends
                 U _SteamUGC
                 U _SteamUser
                 U _SteamUserStats
                 U _SteamUtils
                 U __Block_copy
                 U __DefaultRuneLocale
                 U __NSConcreteGlobalBlock
                 U __NSConcreteStackBlock
                 U __Unwind_Resume
0000000102deac00 D __ZGVN14AgBufferStreamI8AgBufferI11AgAllocatorIL16AgAllocatorTypes1EEEE6s_poolE
0000000102deaab0 D __ZGVN14AgBufferStreamI8AgBufferI18AgForwardAllocatorI16AgFrameAllocatorI11AgAllocatorIL16AgAllocatorTypes1EEEEEE6s_poolE
0000000102dea768 D __ZGVZN11GridCellSet7GetPoolEvE6s_pool
0000000102dea7d8 D __ZGVZN15GameBakerMemory12mallocObjectEvE21forceInitializeMemory
0000000102dea940 D __ZGVZN15GameBakerMemory13mallocPGMLVarEvE21forceInitializeMemory
0000000102dea910 D __ZGVZN15GameBakerMemory14mallocGMLValueEvE21forceInitializeMemory
0000000102dea6d0 D __ZGVZN15GameBakerMemory17mallocVarPointersEvE21forceInitializeMemory
0000000102dea6c0 D __ZGVZN15GameBakerMemory20mallocObjectInstanceEvE21forceInitializeMemory
0000000102decc00 D __ZGVZN16AgRingBufferImplI25AgAchievementPlatformData7AgMutexS1_E3popEPS0_jE4zero
0000000102debab8 D __ZGVZN16AgRingBufferImplI9AgPointerI10AgResourceE7AgMutexS3_E3popEPS2_jE4zero
0000000102deb540 D __ZGVZN16AgRingBufferImplIN20AgLeaderboardManager17StoreRankingEntryEviE3popEPS1_jE4zero
0000000102deb658 D __ZGVZN16AgRingBufferImplIN20AgLeaderboardManager17StoreRankingEntryEviE9enumerateI28SerializeStoreQueuePredicateEEjRT_iiE4zero
0000000102deb5b8 D __ZGVZN16AgRingBufferImplIN20AgLeaderboardManager17StoreRankingEntryEviE9enumerateI29CompleteStoreRankingPredicateEEjRT_iiE4zero
0000000102deb720 D __ZN11AgSingletonI12AgAllocatorsE11ms_instanceE
0000000102df4748 D __ZN11AgSingletonI12AgBusyScreenE11ms_instanceE
0000000102debd78 D __ZN11AgSingletonI12AgFileSystemE11ms_instanceE
0000000102decc58 D __ZN11AgSingletonI12AgSteamworksE11ms_instanceE
0000000102df4680 D __ZN11AgSingletonI12AgWorkerPoolE11ms_instanceE
0000000102dea7b8 D __ZN11AgSingletonI12ButtonImagesE11ms_instanceE
0000000102debad0 D __ZN11AgSingletonI13AgUserManagerE11ms_instanceE
0000000102dea990 D __ZN11AgSingletonI13GBSaveManagerE11ms_instanceE
0000000102df4740 D __ZN11AgSingletonI14AgAudioManagerE11ms_instanceE
0000000102df4710 D __ZN11AgSingletonI14AgInputManagerE11ms_instanceE
0000000102deafc8 D __ZN11AgSingletonI15AgDialogManagerE11ms_instanceE
0000000102df4910 D __ZN11AgSingletonI15AgPlayerManagerE11ms_instanceE
0000000102df4750 D __ZN11AgSingletonI15AgSystemManagerE11ms_instanceE
0000000102df4608 D __ZN11AgSingletonI16AgDisplayManagerE11ms_instanceE
0000000102df46f0 D __ZN11AgSingletonI16AgNetworkManagerE11ms_instanceE
0000000102df4700 D __ZN11AgSingletonI16AgProfileManagerE11ms_instanceE
0000000102df4728 D __ZN11AgSingletonI16AgSessionManagerE11ms_instanceE
0000000102df4738 D __ZN11AgSingletonI17AgResourceManagerE11ms_instanceE
0000000102df4678 D __ZN11AgSingletonI18AgExceptionHandlerE11ms_instanceE
0000000102df4730 D __ZN11AgSingletonI20AgLeaderboardManagerE11ms_instanceE
0000000102dea7c0 D __ZN11AgSingletonI21AgAchievementsManagerE11ms_instanceE
0000000102deb120 D __ZN11AgSingletonI21AgLocalizationManagerE11ms_instanceE
0000000102df4720 D __ZN11AgSingletonI21AgServiceEventManagerE11ms_instanceE
0000000102deaba0 D __ZN14AgBufferStreamI8AgBufferI11AgAllocatorIL16AgAllocatorTypes1EEEE6s_poolE
0000000102deaa50 D __ZN14AgBufferStreamI8AgBufferI18AgForwardAllocatorI16AgFrameAllocatorI11AgAllocatorIL16AgAllocatorTypes1EEEEEE6s_poolE
00000001027ed9ca T __ZN18SilverWareRenderer10setScissorEi
00000001027ed880 T __ZN18SilverWareRenderer5clearEjRK9AgVector4
0000000102dea890 D __ZN3gml12GMLResourcesINS_10GMLSurfaceEE11ms_instanceE
0000000102dea980 D __ZN3gml12GMLResourcesINS_10GMLTextureEE11ms_instanceE
0000000102dea950 D __ZN3gml12GMLResourcesINS_13GMLBackgroundEE11ms_instanceE
0000000102dea778 D __ZN3gml12GMLResourcesINS_17GMLObjectInstanceEE11ms_instanceE
0000000102dea960 D __ZN3gml12GMLResourcesINS_7GMLFileEE11ms_instanceE
0000000102dea770 D __ZN3gml12GMLResourcesINS_7GMLFontEE11ms_instanceE
0000000102dea7b0 D __ZN3gml12GMLResourcesINS_7GMLGridEE11ms_instanceE
0000000102dea988 D __ZN3gml12GMLResourcesINS_7GMLListEE11ms_instanceE
0000000102dea6b0 D __ZN3gml12GMLResourcesINS_7GMLPathEE11ms_instanceE
0000000102dea958 D __ZN3gml12GMLResourcesINS_7GMLRoomEE11ms_instanceE
0000000102dea970 D __ZN3gml12GMLResourcesINS_8GMLSoundEE11ms_instanceE
0000000102dea780 D __ZN3gml12GMLResourcesINS_9GMLObjectEE11ms_instanceE
0000000102dea158 D __ZN3gml12GMLResourcesINS_9GMLSpriteEE11ms_instanceE
                 U __ZN4FMOD14ChannelControl4stopEv
                 U __ZN4FMOD14ChannelControl6addDSPEiPNS_3DSPE
                 U __ZN4FMOD14ChannelControl6setPanEf
                 U __ZN4FMOD14ChannelControl7setModeEj
                 U __ZN4FMOD14ChannelControl9isPlayingEPb
                 U __ZN4FMOD14ChannelControl9removeDSPEPNS_3DSPE
                 U __ZN4FMOD14ChannelControl9setPausedEb
                 U __ZN4FMOD14ChannelControl9setVolumeEf
                 U __ZN4FMOD3DSP15setParameterIntEii
                 U __ZN4FMOD3DSP16getParameterDataEiPPvPjPci
                 U __ZN4FMOD3DSP7releaseEv
                 U __ZN4FMOD5Sound12getOpenStateEP14FMOD_OPENSTATEPjPbS4_
                 U __ZN4FMOD5Sound13setLoopPointsEjjjj
                 U __ZN4FMOD5Sound19getMusicNumChannelsEPi
                 U __ZN4FMOD5Sound7releaseEv
                 U __ZN4FMOD6System10getVersionEPj
                 U __ZN4FMOD6System11createSoundEPKcjP22FMOD_CREATESOUNDEXINFOPPNS_5SoundE
                 U __ZN4FMOD6System11setCallbackEPF11FMOD_RESULTP11FMOD_SYSTEMjPvS4_S4_Ej
                 U __ZN4FMOD6System12createStreamEPKcjP22FMOD_CREATESOUNDEXINFOPPNS_5SoundE
                 U __ZN4FMOD6System13getDriverInfoEiPciP9FMOD_GUIDPiP16FMOD_SPEAKERMODES4_
                 U __ZN4FMOD6System13getNumDriversEPi
                 U __ZN4FMOD6System13setFileSystemEPF11FMOD_RESULTPKcPjPPvS5_EPFS1_S5_S5_EPFS1_S5_S5_jS4_S5_EPFS1_S5_jS5_EPFS1_P18FMOD_ASYNCREADINFOS5_ESI_i
                 U __ZN4FMOD6System15createDSPByTypeE13FMOD_DSP_TYPEPPNS_3DSPE
                 U __ZN4FMOD6System16setDSPBufferSizeEji
                 U __ZN4FMOD6System17setSoftwareFormatEi16FMOD_SPEAKERMODEi
                 U __ZN4FMOD6System4initEijPv
                 U __ZN4FMOD6System5closeEv
                 U __ZN4FMOD6System6updateEv
                 U __ZN4FMOD6System7releaseEv
                 U __ZN4FMOD6System9playSoundEPNS_5SoundEPNS_12ChannelGroupEbPPNS_7ChannelE
                 U __ZN4FMOD6System9setDriverEi
                 U __ZN4FMOD6System9setOutputE15FMOD_OUTPUTTYPE
                 U __ZN4FMOD7Channel11getPositionEPjj
                 U __ZN4FMOD7Channel11setPositionEjj
                 U __ZN4FMOD7Channel12getFrequencyEPf
                 U __ZN4FMOD7Channel12setFrequencyEf
                 U __ZN4FMOD7Channel12setLoopCountEi
0000000102811042 T __ZNK11AgDelegate0IvE20InvokeStaticFunctionEv
00000001027f55a4 T __ZNK11AgDelegate2IRK9AgPointerI15AgRenderContextEyvE20InvokeStaticFunctionES4_y
000000010280aec0 T __ZNK3gml7PGMLVar17bool_compare_funcEv
                 U __ZNKSt3__112basic_stringIcNS_11char_traitsIcEENS_9allocatorIcEEE7compareEPKc
                 U __ZNKSt3__120__vector_base_commonILb1EE20__throw_length_errorEv
                 U __ZNKSt3__120__vector_base_commonILb1EE20__throw_out_of_rangeEv
                 U __ZNKSt3__121__basic_string_commonILb1EE20__throw_length_errorEv
                 U __ZNKSt3__123__match_any_but_newlineIcE6__execERNS_7__stateIcEE
                 U __ZNKSt3__16locale4nameEv
                 U __ZNKSt3__16locale9has_facetERNS0_2idE
                 U __ZNKSt3__16locale9use_facetERNS0_2idE
                 U __ZNKSt3__18ios_base6getlocEv
                 U __ZNSt3__111regex_errorC1ENS_15regex_constants10error_typeE
                 U __ZNSt3__111regex_errorD1Ev
                 U __ZNSt3__112__next_primeEm
                 U __ZNSt3__112__rs_defaultD1Ev
                 U __ZNSt3__112__rs_defaultclEv
                 U __ZNSt3__112basic_stringIcNS_11char_traitsIcEENS_9allocatorIcEEE6__initEPKcm
                 U __ZNSt3__112basic_stringIcNS_11char_traitsIcEENS_9allocatorIcEEE6__initEPKcmm
                 U __ZNSt3__112basic_stringIcNS_11char_traitsIcEENS_9allocatorIcEEE6__initEmc
                 U __ZNSt3__112basic_stringIcNS_11char_traitsIcEENS_9allocatorIcEEE6appendEPKc
                 U __ZNSt3__112basic_stringIcNS_11char_traitsIcEENS_9allocatorIcEEE6appendEPKcm
                 U __ZNSt3__112basic_stringIcNS_11char_traitsIcEENS_9allocatorIcEEE6assignEPKc
                 U __ZNSt3__112basic_stringIcNS_11char_traitsIcEENS_9allocatorIcEEE6insertEmPKc
                 U __ZNSt3__112basic_stringIcNS_11char_traitsIcEENS_9allocatorIcEEE6resizeEmc
                 U __ZNSt3__112basic_stringIcNS_11char_traitsIcEENS_9allocatorIcEEE7replaceEmmPKcm
                 U __ZNSt3__112basic_stringIcNS_11char_traitsIcEENS_9allocatorIcEEE7reserveEm
                 U __ZNSt3__112basic_stringIcNS_11char_traitsIcEENS_9allocatorIcEEE9push_backEc
                 U __ZNSt3__112basic_stringIcNS_11char_traitsIcEENS_9allocatorIcEEEC1ERKS5_
                 U __ZNSt3__112basic_stringIcNS_11char_traitsIcEENS_9allocatorIcEEEC1ERKS5_mmRKS4_
                 U __ZNSt3__112basic_stringIcNS_11char_traitsIcEENS_9allocatorIcEEED1Ev
                 U __ZNSt3__112basic_stringIcNS_11char_traitsIcEENS_9allocatorIcEEEaSERKS5_
                 U __ZNSt3__112basic_stringIcNS_11char_traitsIcEENS_9allocatorIcEEEaSEc
                 U __ZNSt3__112basic_stringIwNS_11char_traitsIwEENS_9allocatorIwEEE6__initEPKwm
                 U __ZNSt3__112basic_stringIwNS_11char_traitsIwEENS_9allocatorIwEEE6appendEmw
                 U __ZNSt3__112basic_stringIwNS_11char_traitsIwEENS_9allocatorIwEEE7reserveEm
                 U __ZNSt3__112basic_stringIwNS_11char_traitsIwEENS_9allocatorIwEEE9push_backEw
                 U __ZNSt3__112basic_stringIwNS_11char_traitsIwEENS_9allocatorIwEEED1Ev
                 U __ZNSt3__112basic_stringIwNS_11char_traitsIwEENS_9allocatorIwEEEaSERKS5_
                 U __ZNSt3__113basic_istreamIcNS_11char_traitsIcEEE4readEPcl
                 U __ZNSt3__113basic_istreamIcNS_11char_traitsIcEEE5seekgExNS_8ios_base7seekdirE
                 U __ZNSt3__113basic_istreamIcNS_11char_traitsIcEEE5tellgEv
                 U __ZNSt3__113basic_istreamIcNS_11char_traitsIcEEED0Ev
                 U __ZNSt3__113basic_istreamIcNS_11char_traitsIcEEED1Ev
                 U __ZNSt3__113basic_istreamIcNS_11char_traitsIcEEED2Ev
                 U __ZNSt3__113basic_ostreamIcNS_11char_traitsIcEEE5writeEPKcl
                 U __ZNSt3__113basic_ostreamIcNS_11char_traitsIcEEE6sentryC1ERS3_
                 U __ZNSt3__113basic_ostreamIcNS_11char_traitsIcEEE6sentryD1Ev
                 U __ZNSt3__113basic_ostreamIcNS_11char_traitsIcEEED0Ev
                 U __ZNSt3__113basic_ostreamIcNS_11char_traitsIcEEED1Ev
                 U __ZNSt3__113basic_ostreamIcNS_11char_traitsIcEEED2Ev
                 U __ZNSt3__113basic_ostreamIcNS_11char_traitsIcEEElsEi
00000001029384c6 T __ZNSt3__114__thread_proxyINS_5tupleIJM8AgThreadFvvEPS2_EEEEEPvS7_
                 U __ZNSt3__115__get_classnameEPKcb
                 U __ZNSt3__115__thread_structC1Ev
                 U __ZNSt3__115__thread_structD1Ev
                 U __ZNSt3__115basic_streambufIcNS_11char_traitsIcEEE4syncEv
                 U __ZNSt3__115basic_streambufIcNS_11char_traitsIcEEE5imbueERKNS_6localeE
                 U __ZNSt3__115basic_streambufIcNS_11char_traitsIcEEE5uflowEv
                 U __ZNSt3__115basic_streambufIcNS_11char_traitsIcEEE6setbufEPcl
                 U __ZNSt3__115basic_streambufIcNS_11char_traitsIcEEE6xsgetnEPcl
                 U __ZNSt3__115basic_streambufIcNS_11char_traitsIcEEE6xsputnEPKcl
                 U __ZNSt3__115basic_streambufIcNS_11char_traitsIcEEE9showmanycEv
                 U __ZNSt3__115basic_streambufIcNS_11char_traitsIcEEEC2Ev
                 U __ZNSt3__115basic_streambufIcNS_11char_traitsIcEEED2Ev
                 U __ZNSt3__119__shared_weak_count12__add_sharedEv
                 U __ZNSt3__119__shared_weak_count16__release_sharedEv
                 U __ZNSt3__119__shared_weak_countD2Ev
                 U __ZNSt3__119__thread_local_dataEv
                 U __ZNSt3__120__get_collation_nameEPKc
                 U __ZNSt3__120__throw_system_errorEiPKc
                 U __ZNSt3__15ctypeIcE2idE
                 U __ZNSt3__16localeC1ERKS0_
                 U __ZNSt3__16localeC1Ev
                 U __ZNSt3__16localeD1Ev
                 U __ZNSt3__16thread4joinEv
                 U __ZNSt3__16thread6detachEv
                 U __ZNSt3__16threadD1Ev
                 U __ZNSt3__17codecvtIcc11__mbstate_tE2idE
                 U __ZNSt3__17collateIcE2idE
                 U __ZNSt3__18__rs_getEv
                 U __ZNSt3__18ios_base33__set_badbit_and_consider_rethrowEv
                 U __ZNSt3__18ios_base4initEPv
                 U __ZNSt3__18ios_base5clearEj
                 U __ZNSt3__19basic_iosIcNS_11char_traitsIcEEED2Ev
                 U __ZNSt8bad_castC1Ev
                 U __ZNSt8bad_castD1Ev
                 U __ZSt7nothrow
                 U __ZSt9terminatev
0000000102debbc0 D __ZTI10AgJsonNode
0000000102debd20 D __ZTI11AgDirectory
0000000102decb50 D __ZTI11AgJsonArray
0000000102decb10 D __ZTI11AgJsonValue
0000000102deb848 D __ZTI11AgReferenceI10AgResourceE
0000000102dea4a8 D __ZTI11AgReferenceI11AgTexture2dE
0000000102dea700 D __ZTI11AgReferenceI13AgAudioSourceE
0000000102deb268 D __ZTI11AgReferenceI13AgIndexBufferE
0000000102dea730 D __ZTI11AgReferenceI14AgAudioChannelE
0000000102deb238 D __ZTI11AgReferenceI14AgVertexBufferE
0000000102df4838 D __ZTI11AgReferenceI15AgShaderProgramE
0000000102debd68 D __ZTI11AgReferenceI7AgMountE
0000000102df4778 D __ZTI11AgReferenceI9AgArchiveE
0000000102dec9a8 D __ZTI11AgSingletonI12AgAllocatorsE
0000000102deafd8 D __ZTI11AgSingletonI12AgBusyScreenE
0000000102deafb8 D __ZTI11AgSingletonI12AgFileSystemE
0000000102df4510 D __ZTI11AgSingletonI12AgSteamworksE
0000000102df46b8 D __ZTI11AgSingletonI12AgWorkerPoolE
0000000102deaf58 D __ZTI11AgSingletonI12ButtonImagesE
0000000102deb660 D __ZTI11AgSingletonI13AgUserManagerE
0000000102dea8e8 D __ZTI11AgSingletonI13GBSaveManagerE
0000000102dec838 D __ZTI11AgSingletonI14AgAudioManagerE
0000000102df4850 D __ZTI11AgSingletonI14AgInputManagerE
0000000102deb110 D __ZTI11AgSingletonI15AgDialogManagerE
0000000102debac0 D __ZTI11AgSingletonI15AgPlayerManagerE
0000000102debb90 D __ZTI11AgSingletonI15AgSystemManagerE
0000000102debc78 D __ZTI11AgSingletonI16AgDisplayManagerE
0000000102dec828 D __ZTI11AgSingletonI16AgNetworkManagerE
0000000102dec9f8 D __ZTI11AgSingletonI16AgProfileManagerE
0000000102decbc8 D __ZTI11AgSingletonI16AgSessionManagerE
0000000102deb7c0 D __ZTI11AgSingletonI17AgResourceManagerE
0000000102debb60 D __ZTI11AgSingletonI18AgExceptionHandlerE
0000000102deb390 D __ZTI11AgSingletonI20AgLeaderboardManagerE
0000000102decbe0 D __ZTI11AgSingletonI21AgAchievementsManagerE
0000000102dec818 D __ZTI11AgSingletonI21AgLocalizationManagerE
0000000102df47e0 D __ZTI11AgSingletonI21AgServiceEventManagerE
0000000102dea330 D __ZTI11CCallResultI13SteamWorkshop18CreateItemResult_tE
0000000102dea2e0 D __ZTI11CCallResultI13SteamWorkshop24SteamUGCQueryCompleted_tE
0000000102dea380 D __ZTI11CCallResultI13SteamWorkshop24SubmitItemUpdateResult_tE
0000000102dec9c0 D __ZTI12AgAllocators
0000000102df4890 D __ZTI12AgController
0000000102debbd0 D __ZTI12AgJsonObject
0000000102df46d0 D __ZTI12AgWorkerPool
0000000102df3a90 D __ZTI12LodePNGState
0000000102dea698 D __ZTI12TiXmlVisitor
0000000102deaf70 D __ZTI13AgAudioEffect
0000000102df45a0 D __ZTI13AgDefaultUser
0000000102df4610 D __ZTI13AgIThreadHost
0000000102deb450 D __ZTI13AgLeaderboard
0000000102dea188 D __ZTI13CCallbackBase
0000000102deace0 D __ZTI14AgBufferStreamI8AgBufferI11AgAllocatorIL16AgAllocatorTypes1EEEE
0000000102deab80 D __ZTI14AgBufferStreamI8AgBufferI18AgForwardAllocatorI16AgFrameAllocatorI11AgAllocatorIL16AgAllocatorTypes1EEEEEE
0000000102df47f0 D __ZTI14AgServiceEvent
0000000102df4b60 D __ZTI14AudioStreamJob
0000000102decb90 D __ZTI15AgJsonNullValue
0000000102dec9e0 D __ZTI15AgMacAllocators
0000000102dea470 D __ZTI15AgServiceThread
0000000102deafa0 D __ZTI16AgAudioEffectFFT
0000000102deca60 D __ZTI16AgDefaultProfile
0000000102deb760 D __ZTI16AgServiceCommandI11AgAllocatorIL16AgAllocatorTypes1EE9AgPointerI6AgFileEFvvES6_E
0000000102deb160 D __ZTI16AgServiceCommandI11AgAllocatorIL16AgAllocatorTypes1EE9AgPointerI8AgDialogEFvvES6_E
0000000102deb1b0 D __ZTI16AgServiceCommandI11AgAllocatorIL16AgAllocatorTypes1EEP15AgDialogManagerFv9AgPointerI8AgDialogEES8_E
0000000102deb200 D __ZTI16AgServiceCommandI11AgAllocatorIL16AgAllocatorTypes1EEP15AgDialogManagerFvvES5_E
0000000102debb10 D __ZTI16AgServiceCommandI11AgAllocatorIL16AgAllocatorTypes1EEP15AgPlayerManagerFvvES5_E
0000000102decc40 D __ZTI16AgServiceCommandI11AgAllocatorIL16AgAllocatorTypes1EEvFv25AgAchievementPlatformDataES4_E
0000000102dea590 D __ZTI16AgServiceCommandI18AgForwardAllocatorI16AgFrameAllocatorI11AgAllocatorIL16AgAllocatorTypes1EEEEP11RoomManagerFvvES9_E
0000000102dea5e0 D __ZTI16AgServiceCommandI18AgForwardAllocatorI16AgFrameAllocatorI11AgAllocatorIL16AgAllocatorTypes1EEEEP13SpriteManagerFvvES9_E
0000000102dea0f0 D __ZTI16AgServiceCommandI18AgForwardAllocatorI16AgFrameAllocatorI11AgAllocatorIL16AgAllocatorTypes1EEEEP17GameBakerGraphicsFijES9_E
0000000102dea680 D __ZTI16AgServiceCommandI18AgForwardAllocatorI16AgFrameAllocatorI11AgAllocatorIL16AgAllocatorTypes1EEEEP17GameBakerGraphicsFvjjEFviiEE
0000000102dea140 D __ZTI16AgServiceCommandI18AgForwardAllocatorI16AgFrameAllocatorI11AgAllocatorIL16AgAllocatorTypes1EEEEP17GameBakerGraphicsFvjjiiiES9_E
0000000102dea630 D __ZTI16AgServiceCommandI18AgForwardAllocatorI16AgFrameAllocatorI11AgAllocatorIL16AgAllocatorTypes1EEEEP17GameBakerGraphicsFvvES9_E
0000000102dea540 D __ZTI16AgServiceCommandI18AgForwardAllocatorI16AgFrameAllocatorI11AgAllocatorIL16AgAllocatorTypes1EEEEP18SilverWareRendererFviES9_E
0000000102dea4f0 D __ZTI16AgServiceCommandI18AgForwardAllocatorI16AgFrameAllocatorI11AgAllocatorIL16AgAllocatorTypes1EEEEP18SilverWareRendererFvjRK9AgVector4EFv12AgClearFlagsS9_EE
0000000102dea920 D __ZTI16AgServiceCommandI18AgForwardAllocatorI16AgFrameAllocatorI11AgAllocatorIL16AgAllocatorTypes1EEEEvFvN3gml11EBlendModesES8_S8_S8_ES9_E
0000000102dea790 D __ZTI16AgServiceCommandI18AgForwardAllocatorI16AgFrameAllocatorI11AgAllocatorIL16AgAllocatorTypes1EEEEvFvPN3gml13GMLBackgroundEiiiifffffRKNS7_8GMLColorESC_SC_SC_fEFvS9_iiiifffffiiiifEE
0000000102dea830 D __ZTI16AgServiceCommandI18AgForwardAllocatorI16AgFrameAllocatorI11AgAllocatorIL16AgAllocatorTypes1EEEEvFviES7_E
0000000102dea850 D __ZTI16AgServiceCommandI18AgForwardAllocatorI16AgFrameAllocatorI11AgAllocatorIL16AgAllocatorTypes1EEEEvFviffES7_E
0000000102dea7e0 D __ZTI16AgServiceCommandI18AgForwardAllocatorI16AgFrameAllocatorI11AgAllocatorIL16AgAllocatorTypes1EEEEvFviffffffRKN3gml8GMLColorEfEFviffffffifEE
0000000102dea9d0 D __ZTI16AgServiceCommandI18AgForwardAllocatorI16AgFrameAllocatorI11AgAllocatorIL16AgAllocatorTypes1EEEEvFviiiES7_E
0000000102dea8d0 D __ZTI16AgServiceCommandI18AgForwardAllocatorI16AgFrameAllocatorI11AgAllocatorIL16AgAllocatorTypes1EEEEvFviiiiES7_E
0000000102dead60 D __ZTI16AgServiceCommandI18AgForwardAllocatorI16AgFrameAllocatorI11AgAllocatorIL16AgAllocatorTypes1EEEEvFviiiiddddfES7_E
0000000102dea870 D __ZTI16AgServiceCommandI18AgForwardAllocatorI16AgFrameAllocatorI11AgAllocatorIL16AgAllocatorTypes1EEEEvFvvES7_E
0000000102df3a70 D __ZTI17AgAudioSourceFMOD
0000000102deb810 D __ZTI17AgResourceLoadJob
0000000102debc60 D __ZTI18AgAudioChannelFMOD
0000000102df4960 D __ZTI18AgAudioManagerFMOD
0000000102debb70 D __ZTI18AgExceptionHandler
0000000102debd10 D __ZTI18AgReferencedObject
0000000102deb050 D __ZTI18AgSimpleThreadHost
0000000102deb480 D __ZTI20AgDefaultLeaderboard
0000000102dead50 D __ZTI20AgServiceCommandBase
0000000102df4660 D __ZTI20AgUpdateSystemThread
0000000102df3d40 D __ZTI24AgPlatformResourceShader
0000000102dec890 D __ZTI25AgStandardMouseController
0000000102deb3f0 D __ZTI27AgDefaultLeaderboardManager
0000000102decbb0 D __ZTI27AgPlatformResourceTexture2d
0000000102df48c0 D __ZTI27AgStandardGamepadController
0000000102df3d20 D __ZTI28AgPlatformResourceShaderBase
0000000102dec8e0 D __ZTI28AgStandardKeyboardController
0000000102deb7a0 D __ZTI29AgPlatformResourceIndexBuffer
0000000102deb2a0 D __ZTI30AgPlatformResourceVertexBuffer
0000000102deb370 D __ZTI31AgPlatformResourceShaderProgram
0000000102dec800 D __ZTI33AgPlatformResourceConstantsBuffer
0000000102deb780 D __ZTI33AgPlatformResourceIndexBufferBase
0000000102deb280 D __ZTI34AgPlatformResourceVertexBufferBase
0000000102deb350 D __ZTI35AgPlatformResourceShaderProgramBase
0000000102df4570 D __ZTI6AgUser
0000000102deac10 D __ZTI8AgBufferI11AgAllocatorIL16AgAllocatorTypes1EEE
0000000102deaae0 D __ZTI8AgBufferI18AgForwardAllocatorI16AgFrameAllocatorI11AgAllocatorIL16AgAllocatorTypes1EEEEE
0000000102decad0 D __ZTI8AgShader
0000000102deacb0 D __ZTI8AgStream
0000000102deca30 D __ZTI9AgProfile
0000000102dea290 D __ZTI9CCallbackI13SteamWorkshop15ItemInstalled_tLb0EE
0000000102dea240 D __ZTI9CCallbackI13SteamWorkshop35RemoteStoragePublishedFileDeleted_tLb0EE
0000000102dea1a0 D __ZTI9CCallbackI13SteamWorkshop38RemoteStoragePublishedFileSubscribed_tLb0EE
0000000102dea1f0 D __ZTI9CCallbackI13SteamWorkshop40RemoteStoragePublishedFileUnsubscribed_tLb0EE
0000000102dea048 D __ZTI9ITickable
0000000102dec940 D __ZTI9RenderJob
0000000102deaa40 D __ZTI9TiXmlBase
0000000102debc10 D __ZTIN12AgRenderList15CaptureCallbackE
0000000102deb070 D __ZTIN12AgThreadPool10ThreadHostE
0000000102df4b30 D __ZTIN12AgThreadPool3JobE
0000000102df4b40 D __ZTIN20AgPriorityThreadPool11PriorityJobE
0000000102dea058 D __ZTIN3gml16IGMLIteratorDataE
0000000102dea070 D __ZTIN3gml20ValueGMLIteratorDataE
0000000102dea090 D __ZTIN3gml27InstanceListGMLIteratorDataINS_9GMLObjectEEE
0000000102deb898 D __ZTIN9AgFactoryI10AgResourceE10IAllocatorE
0000000102deb8b0 D __ZTIN9AgFactoryI10AgResourceE12NewAllocatorI11AgTexture2dEE
0000000102deba90 D __ZTIN9AgFactoryI10AgResourceE12NewAllocatorI12AgRenderListEE
0000000102deb9f0 D __ZTIN9AgFactoryI10AgResourceE12NewAllocatorI13AgIndexBufferEE
0000000102deb9a0 D __ZTIN9AgFactoryI10AgResourceE12NewAllocatorI14AgVertexBufferEE
0000000102deb950 D __ZTIN9AgFactoryI10AgResourceE12NewAllocatorI15AgShaderProgramEE
0000000102deba40 D __ZTIN9AgFactoryI10AgResourceE12NewAllocatorI17AgConstantsBufferEE
0000000102deb900 D __ZTIN9AgFactoryI10AgResourceE12NewAllocatorI8AgShaderEE
0000000102df4220 D __ZTINSt3__110__back_refIcEE
0000000102df3f00 D __ZTINSt3__110__l_anchorIcEE
0000000102df3f50 D __ZTINSt3__110__r_anchorIcEE
0000000102df4450 D __ZTINSt3__111__alternateIcEE
0000000102df3da0 D __ZTINSt3__111__end_stateIcEE
0000000102df3ff0 D __ZTINSt3__111__lookaheadIcNS_12regex_traitsIcEEEE
0000000102df44f0 D __ZTINSt3__111__match_anyIcEE
                 U __ZTINSt3__111regex_errorE
0000000102df4130 D __ZTINSt3__112__match_charIcEE
0000000102df3e80 D __ZTINSt3__113__empty_stateIcEE
0000000102df3c00 D __ZTINSt3__113basic_filebufIcNS_11char_traitsIcEEEE
                 U __ZTINSt3__113basic_istreamIcNS_11char_traitsIcEEEE
                 U __ZTINSt3__113basic_ostreamIcNS_11char_traitsIcEEEE
0000000102df3b60 D __ZTINSt3__114basic_ifstreamIcNS_11char_traitsIcEEEE
0000000102df3ce0 D __ZTINSt3__114basic_ofstreamIcNS_11char_traitsIcEEEE
0000000102df3e40 D __ZTINSt3__115__has_one_stateIcEE
0000000102df3fa0 D __ZTINSt3__115__word_boundaryIcNS_12regex_traitsIcEEEE
                 U __ZTINSt3__115basic_streambufIcNS_11char_traitsIcEEEE
0000000102df4ae0 D __ZTINSt3__115basic_stringbufIcNS_11char_traitsIcEENS_9allocatorIcEEEE
0000000102df4180 D __ZTINSt3__116__back_ref_icaseIcNS_12regex_traitsIcEEEE
0000000102df3e60 D __ZTINSt3__116__owns_one_stateIcEE
0000000102df4360 D __ZTINSt3__117__owns_two_statesIcEE
0000000102df4400 D __ZTINSt3__117__repeat_one_loopIcEE
0000000102df41d0 D __ZTINSt3__118__back_ref_collateIcNS_12regex_traitsIcEEEE
0000000102df4090 D __ZTINSt3__118__match_char_icaseIcNS_12regex_traitsIcEEEE
                 U __ZTINSt3__119__shared_weak_countE
0000000102df4a40 D __ZTINSt3__119basic_ostringstreamIcNS_11char_traitsIcEENS_9allocatorIcEEEE
0000000102df4270 D __ZTINSt3__120__bracket_expressionIcNS_12regex_traitsIcEEEE
0000000102df40e0 D __ZTINSt3__120__match_char_collateIcNS_12regex_traitsIcEEEE
0000000102df3df0 D __ZTINSt3__120__shared_ptr_pointerIPNS_13__empty_stateIcEENS_14default_deleteIS2_EENS_9allocatorIS2_EEEE
0000000102df44a0 D __ZTINSt3__121__empty_non_own_stateIcEE
0000000102df4040 D __ZTINSt3__123__match_any_but_newlineIcEE
0000000102df4310 D __ZTINSt3__126__end_marked_subexpressionIcEE
0000000102df42c0 D __ZTINSt3__128__begin_marked_subexpressionIcEE
0000000102df4380 D __ZTINSt3__16__loopIcEE
0000000102df3d88 D __ZTINSt3__16__nodeIcEE
                 U __ZTIPKc
                 U __ZTISt8bad_cast
                 U __ZTIi
0000000102cc3830 S __ZTS10AgJsonNode
0000000102cc39c0 S __ZTS11AgDirectory
0000000102cc424b S __ZTS11AgJsonArray
0000000102cc4230 S __ZTS11AgJsonValue
0000000102cc33c0 S __ZTS11AgReferenceI10AgResourceE
0000000102cc0190 S __ZTS11AgReferenceI11AgTexture2dE
0000000102cc0600 S __ZTS11AgReferenceI13AgAudioSourceE
0000000102cc2b90 S __ZTS11AgReferenceI13AgIndexBufferE
0000000102cc0620 S __ZTS11AgReferenceI14AgAudioChannelE
0000000102cc2b70 S __ZTS11AgReferenceI14AgVertexBufferE
0000000102cc60e0 S __ZTS11AgReferenceI15AgShaderProgramE
0000000102cc39f0 S __ZTS11AgReferenceI7AgMountE
0000000102cc5fe0 S __ZTS11AgReferenceI9AgArchiveE
0000000102cc3d20 S __ZTS11AgSingletonI12AgAllocatorsE
0000000102cc2900 S __ZTS11AgSingletonI12AgBusyScreenE
0000000102cc28e0 S __ZTS11AgSingletonI12AgFileSystemE
0000000102cc5c70 S __ZTS11AgSingletonI12AgSteamworksE
0000000102cc5f20 S __ZTS11AgSingletonI12AgWorkerPoolE
0000000102cc24a0 S __ZTS11AgSingletonI12ButtonImagesE
0000000102cc2dd0 S __ZTS11AgSingletonI13AgUserManagerE
0000000102cc13d0 S __ZTS11AgSingletonI13GBSaveManagerE
0000000102cc3b70 S __ZTS11AgSingletonI14AgAudioManagerE
0000000102cc6130 S __ZTS11AgSingletonI14AgInputManagerE
0000000102cc2a00 S __ZTS11AgSingletonI15AgDialogManagerE
0000000102cc35f0 S __ZTS11AgSingletonI15AgPlayerManagerE
0000000102cc3800 S __ZTS11AgSingletonI15AgSystemManagerE
0000000102cc3970 S __ZTS11AgSingletonI16AgDisplayManagerE
0000000102cc3b10 S __ZTS11AgSingletonI16AgNetworkManagerE
0000000102cc3da0 S __ZTS11AgSingletonI16AgProfileManagerE
0000000102cc4350 S __ZTS11AgSingletonI16AgSessionManagerE
0000000102cc3370 S __ZTS11AgSingletonI17AgResourceManagerE
0000000102cc3730 S __ZTS11AgSingletonI18AgExceptionHandlerE
0000000102cc2d20 S __ZTS11AgSingletonI20AgLeaderboardManagerE
0000000102cc4560 S __ZTS11AgSingletonI21AgAchievementsManagerE
0000000102cc3a80 S __ZTS11AgSingletonI21AgLocalizationManagerE
0000000102cc6030 S __ZTS11AgSingletonI21AgServiceEventManagerE
0000000102cbfdd0 S __ZTS11CCallResultI13SteamWorkshop18CreateItemResult_tE
0000000102cbfd90 S __ZTS11CCallResultI13SteamWorkshop24SteamUGCQueryCompleted_tE
0000000102cbfe10 S __ZTS11CCallResultI13SteamWorkshop24SubmitItemUpdateResult_tE
0000000102cc3d02 S __ZTS12AgAllocators
0000000102cc4c90 S __ZTS12AgController
0000000102cc3821 S __ZTS12AgJsonObject
0000000102cc5f07 S __ZTS12AgWorkerPool
0000000102cc54b0 S __ZTS12LodePNGState
0000000102cc05e1 S __ZTS12TiXmlVisitor
0000000102cc2513 S __ZTS13AgAudioEffect
0000000102cc5cb0 S __ZTS13AgDefaultUser
0000000102cc5ee0 S __ZTS13AgIThreadHost
0000000102cc2d87 S __ZTS13AgLeaderboard
0000000102cbfc98 S __ZTS13CCallbackBase
0000000102cc2300 S __ZTS14AgBufferStreamI8AgBufferI11AgAllocatorIL16AgAllocatorTypes1EEEE
0000000102cc2260 S __ZTS14AgBufferStreamI8AgBufferI18AgForwardAllocatorI16AgFrameAllocatorI11AgAllocatorIL16AgAllocatorTypes1EEEEEE
0000000102cc6060 S __ZTS14AgServiceEvent
0000000102cc6330 S __ZTS14AudioStreamJob
0000000102cc4260 S __ZTS15AgJsonNullValue
0000000102cc3cf0 S __ZTS15AgMacAllocators
0000000102cc0170 S __ZTS15AgServiceThread
0000000102cc2500 S __ZTS16AgAudioEffectFFT
0000000102cc3df0 S __ZTS16AgDefaultProfile
0000000102cc3250 S __ZTS16AgServiceCommandI11AgAllocatorIL16AgAllocatorTypes1EE9AgPointerI6AgFileEFvvES6_E
0000000102cc2a30 S __ZTS16AgServiceCommandI11AgAllocatorIL16AgAllocatorTypes1EE9AgPointerI8AgDialogEFvvES6_E
0000000102cc2a90 S __ZTS16AgServiceCommandI11AgAllocatorIL16AgAllocatorTypes1EEP15AgDialogManagerFv9AgPointerI8AgDialogEES8_E
0000000102cc2b00 S __ZTS16AgServiceCommandI11AgAllocatorIL16AgAllocatorTypes1EEP15AgDialogManagerFvvES5_E
0000000102cc3620 S __ZTS16AgServiceCommandI11AgAllocatorIL16AgAllocatorTypes1EEP15AgPlayerManagerFvvES5_E
0000000102cc4590 S __ZTS16AgServiceCommandI11AgAllocatorIL16AgAllocatorTypes1EEvFv25AgAchievementPlatformDataES4_E
0000000102cc03c0 S __ZTS16AgServiceCommandI18AgForwardAllocatorI16AgFrameAllocatorI11AgAllocatorIL16AgAllocatorTypes1EEEEP11RoomManagerFvvES9_E
0000000102cc0440 S __ZTS16AgServiceCommandI18AgForwardAllocatorI16AgFrameAllocatorI11AgAllocatorIL16AgAllocatorTypes1EEEEP13SpriteManagerFvvES9_E
0000000102cbfb10 S __ZTS16AgServiceCommandI18AgForwardAllocatorI16AgFrameAllocatorI11AgAllocatorIL16AgAllocatorTypes1EEEEP17GameBakerGraphicsFijES9_E
0000000102cc0540 S __ZTS16AgServiceCommandI18AgForwardAllocatorI16AgFrameAllocatorI11AgAllocatorIL16AgAllocatorTypes1EEEEP17GameBakerGraphicsFvjjEFviiEE
0000000102cbfb90 S __ZTS16AgServiceCommandI18AgForwardAllocatorI16AgFrameAllocatorI11AgAllocatorIL16AgAllocatorTypes1EEEEP17GameBakerGraphicsFvjjiiiES9_E
0000000102cc04c0 S __ZTS16AgServiceCommandI18AgForwardAllocatorI16AgFrameAllocatorI11AgAllocatorIL16AgAllocatorTypes1EEEEP17GameBakerGraphicsFvvES9_E
0000000102cc0340 S __ZTS16AgServiceCommandI18AgForwardAllocatorI16AgFrameAllocatorI11AgAllocatorIL16AgAllocatorTypes1EEEEP18SilverWareRendererFviES9_E
0000000102cc02a0 S __ZTS16AgServiceCommandI18AgForwardAllocatorI16AgFrameAllocatorI11AgAllocatorIL16AgAllocatorTypes1EEEEP18SilverWareRendererFvjRK9AgVector4EFv12AgClearFlagsS9_EE
0000000102cc1400 S __ZTS16AgServiceCommandI18AgForwardAllocatorI16AgFrameAllocatorI11AgAllocatorIL16AgAllocatorTypes1EEEEvFvN3gml11EBlendModesES8_S8_S8_ES9_E
0000000102cc0660 S __ZTS16AgServiceCommandI18AgForwardAllocatorI16AgFrameAllocatorI11AgAllocatorIL16AgAllocatorTypes1EEEEvFvPN3gml13GMLBackgroundEiiiifffffRKNS7_8GMLColorESC_SC_SC_fEFvS9_iiiifffffiiiifEE
0000000102cc07f0 S __ZTS16AgServiceCommandI18AgForwardAllocatorI16AgFrameAllocatorI11AgAllocatorIL16AgAllocatorTypes1EEEEvFviES7_E
0000000102cc0860 S __ZTS16AgServiceCommandI18AgForwardAllocatorI16AgFrameAllocatorI11AgAllocatorIL16AgAllocatorTypes1EEEEvFviffES7_E
0000000102cc0760 S __ZTS16AgServiceCommandI18AgForwardAllocatorI16AgFrameAllocatorI11AgAllocatorIL16AgAllocatorTypes1EEEEvFviffffffRKN3gml8GMLColorEfEFviffffffifEE
0000000102cc1490 S __ZTS16AgServiceCommandI18AgForwardAllocatorI16AgFrameAllocatorI11AgAllocatorIL16AgAllocatorTypes1EEEEvFviiiES7_E
0000000102cc0940 S __ZTS16AgServiceCommandI18AgForwardAllocatorI16AgFrameAllocatorI11AgAllocatorIL16AgAllocatorTypes1EEEEvFviiiiES7_E
0000000102cc2360 S __ZTS16AgServiceCommandI18AgForwardAllocatorI16AgFrameAllocatorI11AgAllocatorIL16AgAllocatorTypes1EEEEvFviiiiddddfES7_E
0000000102cc08d0 S __ZTS16AgServiceCommandI18AgForwardAllocatorI16AgFrameAllocatorI11AgAllocatorIL16AgAllocatorTypes1EEEEvFvvES7_E
0000000102cc4cc0 S __ZTS17AgAudioSourceFMOD
0000000102cc33a0 S __ZTS17AgResourceLoadJob
0000000102cc38e0 S __ZTS18AgAudioChannelFMOD
0000000102cc6270 S __ZTS18AgAudioManagerFMOD
0000000102cc3710 S __ZTS18AgExceptionHandler
0000000102cc39d0 S __ZTS18AgReferencedObject
0000000102cc2990 S __ZTS18AgSimpleThreadHost
0000000102cc2d70 S __ZTS20AgDefaultLeaderboard
0000000102cc23e0 S __ZTS20AgServiceCommandBase
0000000102cc5ef0 S __ZTS20AgUpdateSystemThread
0000000102cc5590 S __ZTS24AgPlatformResourceShader
0000000102cc3c30 S __ZTS25AgStandardMouseController
0000000102cc2d50 S __ZTS27AgDefaultLeaderboardManager
0000000102cc42f0 S __ZTS27AgPlatformResourceTexture2d
0000000102cc6150 S __ZTS27AgStandardGamepadController
0000000102cc55b0 S __ZTS28AgPlatformResourceShaderBase
0000000102cc3c50 S __ZTS28AgStandardKeyboardController
0000000102cc3300 S __ZTS29AgPlatformResourceIndexBuffer
0000000102cc2bd0 S __ZTS30AgPlatformResourceVertexBuffer
0000000102cc2c60 S __ZTS31AgPlatformResourceShaderProgram
0000000102cc3a30 S __ZTS33AgPlatformResourceConstantsBuffer
0000000102cc3320 S __ZTS33AgPlatformResourceIndexBufferBase
0000000102cc2c00 S __ZTS34AgPlatformResourceVertexBufferBase
0000000102cc2c30 S __ZTS35AgPlatformResourceShaderProgramBase
0000000102cc5cc0 S __ZTS6AgUser
0000000102cc22d0 S __ZTS8AgBufferI11AgAllocatorIL16AgAllocatorTypes1EEE
0000000102cc2200 S __ZTS8AgBufferI18AgForwardAllocatorI16AgFrameAllocatorI11AgAllocatorIL16AgAllocatorTypes1EEEEE
0000000102cc3e10 S __ZTS8AgShader
0000000102cc3240 S __ZTS8AgStream
0000000102cc3e03 S __ZTS9AgProfile
0000000102cbfd50 S __ZTS9CCallbackI13SteamWorkshop15ItemInstalled_tLb0EE
0000000102cbfd00 S __ZTS9CCallbackI13SteamWorkshop35RemoteStoragePublishedFileDeleted_tLb0EE
0000000102cbfc50 S __ZTS9CCallbackI13SteamWorkshop38RemoteStoragePublishedFileSubscribed_tLb0EE
0000000102cbfcb0 S __ZTS9CCallbackI13SteamWorkshop40RemoteStoragePublishedFileUnsubscribed_tLb0EE
0000000102cbf9f9 S __ZTS9ITickable
0000000102cc3c80 S __ZTS9RenderJob
0000000102cc1971 S __ZTS9TiXmlBase
0000000102cc38a0 S __ZTSN12AgRenderList15CaptureCallbackE
0000000102cc2970 S __ZTSN12AgThreadPool10ThreadHostE
0000000102cc3c90 S __ZTSN12AgThreadPool3JobE
0000000102cc6350 S __ZTSN20AgPriorityThreadPool11PriorityJobE
0000000102cbfa40 S __ZTSN3gml16IGMLIteratorDataE
0000000102cbfa20 S __ZTSN3gml20ValueGMLIteratorDataE
0000000102cbfa60 S __ZTSN3gml27InstanceListGMLIteratorDataINS_9GMLObjectEEE
0000000102cc3420 S __ZTSN9AgFactoryI10AgResourceE10IAllocatorE
0000000102cc33e0 S __ZTSN9AgFactoryI10AgResourceE12NewAllocatorI11AgTexture2dEE
0000000102cc3590 S __ZTSN9AgFactoryI10AgResourceE12NewAllocatorI12AgRenderListEE
0000000102cc3510 S __ZTSN9AgFactoryI10AgResourceE12NewAllocatorI13AgIndexBufferEE
0000000102cc34d0 S __ZTSN9AgFactoryI10AgResourceE12NewAllocatorI14AgVertexBufferEE
0000000102cc3490 S __ZTSN9AgFactoryI10AgResourceE12NewAllocatorI15AgShaderProgramEE
0000000102cc3550 S __ZTSN9AgFactoryI10AgResourceE12NewAllocatorI17AgConstantsBufferEE
0000000102cc3450 S __ZTSN9AgFactoryI10AgResourceE12NewAllocatorI8AgShaderEE
0000000102cc5920 S __ZTSNSt3__110__back_refIcEE
0000000102cc5720 S __ZTSNSt3__110__l_anchorIcEE
0000000102cc5740 S __ZTSNSt3__110__r_anchorIcEE
0000000102cc5a40 S __ZTSNSt3__111__alternateIcEE
0000000102cc55d0 S __ZTSNSt3__111__end_stateIcEE
0000000102cc57a0 S __ZTSNSt3__111__lookaheadIcNS_12regex_traitsIcEEEE
0000000102cc5a90 S __ZTSNSt3__111__match_anyIcEE
0000000102cc5880 S __ZTSNSt3__112__match_charIcEE
0000000102cc56c0 S __ZTSNSt3__113__empty_stateIcEE
0000000102cc54f0 S __ZTSNSt3__113basic_filebufIcNS_11char_traitsIcEEEE
0000000102cc54c0 S __ZTSNSt3__114basic_ifstreamIcNS_11char_traitsIcEEEE
0000000102cc5520 S __ZTSNSt3__114basic_ofstreamIcNS_11char_traitsIcEEEE
0000000102cc5680 S __ZTSNSt3__114default_deleteINS_13__empty_stateIcEEEE
0000000102cc5700 S __ZTSNSt3__115__has_one_stateIcEE
0000000102cc5760 S __ZTSNSt3__115__word_boundaryIcNS_12regex_traitsIcEEEE
0000000102cc62e0 S __ZTSNSt3__115basic_stringbufIcNS_11char_traitsIcEENS_9allocatorIcEEEE
0000000102cc58a0 S __ZTSNSt3__116__back_ref_icaseIcNS_12regex_traitsIcEEEE
0000000102cc56e0 S __ZTSNSt3__116__owns_one_stateIcEE
0000000102cc5a00 S __ZTSNSt3__117__owns_two_statesIcEE
0000000102cc5a20 S __ZTSNSt3__117__repeat_one_loopIcEE
0000000102cc58e0 S __ZTSNSt3__118__back_ref_collateIcNS_12regex_traitsIcEEEE
0000000102cc5800 S __ZTSNSt3__118__match_char_icaseIcNS_12regex_traitsIcEEEE
0000000102cc6290 S __ZTSNSt3__119basic_ostringstreamIcNS_11char_traitsIcEENS_9allocatorIcEEEE
0000000102cc5940 S __ZTSNSt3__120__bracket_expressionIcNS_12regex_traitsIcEEEE
0000000102cc5840 S __ZTSNSt3__120__match_char_collateIcNS_12regex_traitsIcEEEE
0000000102cc5610 S __ZTSNSt3__120__shared_ptr_pointerIPNS_13__empty_stateIcEENS_14default_deleteIS2_EENS_9allocatorIS2_EEEE
0000000102cc5a60 S __ZTSNSt3__121__empty_non_own_stateIcEE
0000000102cc57d0 S __ZTSNSt3__123__match_any_but_newlineIcEE
0000000102cc59b0 S __ZTSNSt3__126__end_marked_subexpressionIcEE
0000000102cc5980 S __ZTSNSt3__128__begin_marked_subexpressionIcEE
0000000102cc59e0 S __ZTSNSt3__16__loopIcEE
0000000102cc55f0 S __ZTSNSt3__16__nodeIcEE
                 U __ZTVN10__cxxabiv117__class_type_infoE
                 U __ZTVN10__cxxabiv120__si_class_type_infoE
                 U __ZTVN10__cxxabiv121__vmi_class_type_infoE
                 U __ZTv0_n24_NSt3__113basic_istreamIcNS_11char_traitsIcEEED0Ev
                 U __ZTv0_n24_NSt3__113basic_istreamIcNS_11char_traitsIcEEED1Ev
                 U __ZTv0_n24_NSt3__113basic_ostreamIcNS_11char_traitsIcEEED0Ev
                 U __ZTv0_n24_NSt3__113basic_ostreamIcNS_11char_traitsIcEEED1Ev
0000000102dea740 D __ZZN11GridCellSet7GetPoolEvE6s_pool
0000000102dea7d0 D __ZZN15GameBakerMemory12mallocObjectEvE21forceInitializeMemory
0000000102dead10 D __ZZN15GameBakerMemory13mallocPGMLVarEvE21forceInitializeMemory
0000000102dead00 D __ZZN15GameBakerMemory14mallocGMLValueEvE21forceInitializeMemory
0000000102dea6c8 D __ZZN15GameBakerMemory17mallocVarPointersEvE21forceInitializeMemory
0000000102dea6b8 D __ZZN15GameBakerMemory20mallocObjectInstanceEvE21forceInitializeMemory
0000000102decbf0 D __ZZN16AgRingBufferImplI25AgAchievementPlatformData7AgMutexS1_E3popEPS0_jE4zero
0000000102debaa8 D __ZZN16AgRingBufferImplI9AgPointerI10AgResourceE7AgMutexS3_E3popEPS2_jE4zero
0000000102deb4d0 D __ZZN16AgRingBufferImplIN20AgLeaderboardManager17StoreRankingEntryEviE3popEPS1_jE4zero
0000000102deb5e8 D __ZZN16AgRingBufferImplIN20AgLeaderboardManager17StoreRankingEntryEviE9enumerateI28SerializeStoreQueuePredicateEEjRT_iiE4zero
0000000102deb548 D __ZZN16AgRingBufferImplIN20AgLeaderboardManager17StoreRankingEntryEviE9enumerateI29CompleteStoreRankingPredicateEEjRT_iiE4zero
0000000102deb0f0 D __ZZN16AgRingBufferImplIPN12AgThreadPool3JobE7AgMutexS3_E3popEPS2_jE4zero
0000000102deb100 D __ZZN16AgRingBufferImplIPN12AgThreadPool3JobE7AgMutexS3_E3popI20GetPriorityPredicateEEiRT_RS2_E4zero
0000000102deb0f8 D __ZZN16AgRingBufferImplIPN12AgThreadPool3JobE7AgMutexS3_E9enumerateI18CancelJobPredicateEEjRT_iiE4zero
0000000102deb0d0 D __ZZN16AgRingBufferImplIPN12AgThreadPool3JobE7AgMutexS3_E9enumerateI20FindJobByIdPredicateEEjRT_iiE4zero
0000000102deb0e8 D __ZZN16AgRingBufferImplIPN12AgThreadPool3JobE7AgMutexS3_E9enumerateI21GetRemoveJobPredicateEEjRT_iiE4zero
0000000102deb0d8 D __ZZN16AgRingBufferImplIPN12AgThreadPool3JobE7AgMutexS3_E9enumerateI25FindJobByGroupIdPredicateEEjRT_iiE4zero
0000000102df4b80 D __ZZN16AgRingBufferImplIPN12AgThreadPool3JobE7AgMutexS3_E9enumerateI28FileIDMatchesCancelPredicateEEjRT_iiE4zero
0000000102deb0e0 D __ZZN16AgRingBufferImplIPN12AgThreadPool3JobE7AgMutexS3_E9enumerateINS0_20CompleteJobPredicateEEEjRT_iiE4zero
0000000102df4508 D __ZZN31AgPlatformResourceTexture2dBase9getLoaderEvE6loader
0000000102dea900 D __ZZN3gml6randomERKNS_7PGMLVarEE15oneOverRAND_MAX
0000000102dea038 D __ZZNK3gml8GridNode8estimateEiiE2xd
0000000102dea03c D __ZZNK3gml8GridNode8estimateEiiE2yd
                 U __ZdaPv
                 U __ZdlPv
                 U __Znam
                 U __Znwm
                 U __ZnwmRKSt9nothrow_t
                 U ___CFConstantStringClassReference
                 U ___assert_rtn
                 U ___bzero
                 U ___cxa_allocate_exception
                 U ___cxa_atexit
                 U ___cxa_begin_catch
                 U ___cxa_end_catch
                 U ___cxa_free_exception
                 U ___cxa_guard_abort
                 U ___cxa_guard_acquire
                 U ___cxa_guard_release
                 U ___cxa_pure_virtual
                 U ___cxa_rethrow
                 U ___cxa_throw
                 U ___error
                 U ___gxx_personality_v0
                 U ___maskrune
                 U ___memcpy_chk
                 U ___sprintf_chk
                 U ___stack_chk_fail
                 U ___stack_chk_guard
                 U ___stderrp
                 U ___tolower
                 U __dispatch_main_q
                 U __dyld_register_func_for_add_image
0000000100000000 T __mh_execute_header
                 U __objc_empty_cache
                 U __objc_empty_vtable
                 U _abort
                 U _acosf
                 U _adler32
                 U _asprintf
                 U _atan2
                 U _atan2f
                 U _atof
                 U _atoi
                 U _bzero
                 U _calloc
                 U _ceil
                 U _ceilf
                 U _class_addMethod
                 U _class_addProperty
                 U _class_addProtocol
                 U _class_getInstanceMethod
                 U _class_getInstanceSize
                 U _class_getInstanceVariable
                 U _class_getIvarLayout
                 U _class_getName
                 U _class_getSuperclass
                 U _class_isMetaClass
                 U _class_replaceMethod
                 U _class_respondsToSelector
                 U _clock
                 U _closedir
                 U _cos
                 U _cosf
                 U _crc32
                 U _deflate
                 U _deflateEnd
                 U _deflateInit2_
                 U _deflateReset
                 U _dispatch_async
                 U _dispatch_release
                 U _dispatch_semaphore_create
                 U _dispatch_semaphore_signal
                 U _dispatch_semaphore_wait
                 U _dispatch_sync
                 U _dispatch_time
                 U _div
                 U _exit
                 U _fclose
                 U _ferror
                 U _fflush
                 U _floor
                 U _floorf
                 U _fmod
                 U _fmodf
                 U _fopen
                 U _fprintf
                 U _fputc
                 U _fputs
                 U _fread
                 U _free
                 U _frexp
                 U _fseek
                 U _fseeko
                 U _ftell
                 U _ftello
                 U _fwrite
                 U _getenv
                 U _glActiveTexture
                 U _glAttachShader
                 U _glBindAttribLocation
                 U _glBindBuffer
                 U _glBindFramebufferEXT
                 U _glBindRenderbufferEXT
                 U _glBindTexture
                 U _glBindVertexArray
                 U _glBlendEquation
                 U _glBlendFuncSeparate
                 U _glBlitFramebuffer
                 U _glBufferData
                 U _glBufferSubData
                 U _glCheckFramebufferStatus
                 U _glClear
                 U _glClearColor
                 U _glClearDepth
                 U _glClearStencil
                 U _glCompileShader
                 U _glCreateProgram
                 U _glCreateShader
                 U _glDeleteBuffers
                 U _glDeleteFramebuffersEXT
                 U _glDeleteProgram
                 U _glDeleteShader
                 U _glDeleteTextures
                 U _glDeleteVertexArrays
                 U _glDepthFunc
                 U _glDepthMask
                 U _glDisable
                 U _glDisableVertexAttribArray
                 U _glDrawArrays
                 U _glDrawElements
                 U _glEnable
                 U _glEnableVertexAttribArray
                 U _glFramebufferRenderbufferEXT
                 U _glFramebufferTexture2DEXT
                 U _glFrontFace
                 U _glGenBuffers
                 U _glGenFramebuffersEXT
                 U _glGenRenderbuffersEXT
                 U _glGenTextures
                 U _glGenVertexArrays
                 U _glGenerateMipmap
                 U _glGetActiveUniform
                 U _glGetIntegerv
                 U _glGetProgramInfoLog
                 U _glGetProgramiv
                 U _glGetShaderInfoLog
                 U _glGetShaderiv
                 U _glGetTexImage
                 U _glGetUniformLocation
                 U _glLinkProgram
                 U _glPixelStorei
                 U _glReadBuffer
                 U _glReadPixels
                 U _glRenderbufferStorageEXT
                 U _glRenderbufferStorageMultisampleEXT
                 U _glScissor
                 U _glShaderSource
                 U _glStencilFunc
                 U _glStencilMask
                 U _glStencilOp
                 U _glTexImage2D
                 U _glTexImage2DMultisample
                 U _glTexParameteri
                 U _glTexSubImage2D
                 U _glUniform1fv
                 U _glUniform1i
                 U _glUniform2fv
                 U _glUniform3fv
                 U _glUniform4fv
                 U _glUniformMatrix2fv
                 U _glUniformMatrix3fv
                 U _glUniformMatrix4fv
                 U _glUseProgram
                 U _glValidateProgram
                 U _glVertexAttribPointer
                 U _glViewport
                 U _gmtime
                 U _hash_create
                 U _hash_search
                 U _inflate
                 U _inflateEnd
                 U _inflateInit_
                 U _inflateReset
                 U _ivar_getName
                 U _ivar_getOffset
                 U _kCFCoreFoundationVersionNumber
                 U _localtime
                 U _longjmp
                 U _mach_absolute_time
                 U _mach_timebase_info
                 U _malloc
                 U _memchr
                 U _memcmp
                 U _memcpy
                 U _memmove
                 U _memset
                 U _memset_pattern16
                 U _method_setImplementation
                 U _mkdir
                 U _modf
                 U _objc_allocateClassPair
                 U _objc_autoreleasePoolPop
                 U _objc_autoreleasePoolPush
                 U _objc_collectingEnabled
                 U _objc_constructInstance
                 U _objc_copyClassNamesForImage
                 U _objc_getClass
                 U _objc_getMetaClass
                 U _objc_getProtocol
                 U _objc_getRequiredClass
                 U _objc_initializeClassPair
                 U _objc_lookUpClass
                 U _objc_msgSend
                 U _objc_msgSendSuper2
                 U _objc_msgSend_stret
                 U _objc_readClassPair
                 U _objc_registerClassPair
                 U _objc_retain
                 U _object_getClass
                 U _object_getIndexedIvars
                 U _object_getIvar
                 U _object_setIvar
                 U _opendir$INODE64
                 U _pow
                 U _powf
                 U _property_copyAttributeList
                 U _protocol_getMethodDescription
                 U _protocol_getName
                 U _pthread_cond_broadcast
                 U _pthread_cond_destroy
                 U _pthread_cond_init
                 U _pthread_cond_timedwait
                 U _pthread_cond_wait
                 U _pthread_create
                 U _pthread_getschedparam
                 U _pthread_getspecific
                 U _pthread_mutex_destroy
                 U _pthread_mutex_init
                 U _pthread_mutex_lock
                 U _pthread_mutex_unlock
                 U _pthread_mutexattr_destroy
                 U _pthread_mutexattr_init
                 U _pthread_mutexattr_setprotocol
                 U _pthread_mutexattr_settype
                 U _pthread_self
                 U _pthread_setschedparam
                 U _pthread_setspecific
                 U _qsort
                 U _rand
                 U _readdir$INODE64
                 U _realloc
                 U _remove
                 U _rename
                 U _rewind
                 U _rmdir
                 U _sel_getUid
                 U _setjmp
                 U _sin
                 U _sinf
                 U _snprintf
                 U _sprintf
                 U _srand
                 U _sscanf
                 U _stat$INODE64
                 U _strcat
                 U _strchr
                 U _strcmp
                 U _strcpy
                 U _strerror
                 U _strlen
                 U _strncasecmp
                 U _strncmp
                 U _strncpy
                 U _strrchr
                 U _strstr
                 U _strtoull
                 U _tan
                 U _time
                 U _tmpfile
                 U _usleep
                 U _uuid_generate_random
                 U _wcslen
                 U _wcstombs
                 U dyld_stub_binder
























# OLD #

[MacOS] nm -g HotlineMiami2
                 U _CFArrayGetCount
                 U _CFArrayGetValueAtIndex
                 U _CGDisplayCapture
                 U _CGDisplayCopyAllDisplayModes
                 U _CGDisplayCopyDisplayMode
                 U _CGDisplayHideCursor
                 U _CGDisplayModeGetHeight
                 U _CGDisplayModeGetRefreshRate
                 U _CGDisplayModeGetWidth
                 U _CGDisplayRelease
                 U _CGDisplaySetDisplayMode
                 U _CGDisplayShowCursor
                 U _CGLDisable
                 U _CGLEnable
                 U _CGLFlushDrawable
                 U _CGLLockContext
                 U _CGLSetParameter
                 U _CGLUnlockContext
                 U _CGMainDisplayID
                 U _CVDisplayLinkCreateWithActiveCGDisplays
                 U _CVDisplayLinkRelease
                 U _CVDisplayLinkSetCurrentCGDisplayFromOpenGLContext
                 U _CVDisplayLinkSetOutputCallback
                 U _CVDisplayLinkStart
                 U _CVDisplayLinkStop
                 U _FMOD_System_Create
                 U _NSApp
                 U _NSApplicationMain
                 U _NSLog
                 U _OBJC_CLASS_$_NSBitmapImageRep
                 U _OBJC_CLASS_$_NSBundle
                 U _OBJC_CLASS_$_NSCursor
                 U _OBJC_CLASS_$_NSData
                 U _OBJC_CLASS_$_NSFileManager
                 U _OBJC_CLASS_$_NSImage
                 U _OBJC_CLASS_$_NSMenu
                 U _OBJC_CLASS_$_NSObject
                 U _OBJC_CLASS_$_NSOpenGLContext
                 U _OBJC_CLASS_$_NSOpenGLPixelFormat
                 U _OBJC_CLASS_$_NSOpenGLView
                 U _OBJC_CLASS_$_NSString
                 U _OBJC_CLASS_$_NSThread
                 U _OBJC_CLASS_$_NSWindow
                 U _OBJC_CLASS_$_NSWindowController
                 U _OBJC_METACLASS_$_NSObject
                 U _OBJC_METACLASS_$_NSOpenGLView
                 U _OBJC_METACLASS_$_NSWindowController
                 U _OSAtomicAdd32Barrier
                 U _OSAtomicCompareAndSwap32Barrier
                 U _OSAtomicCompareAndSwapPtrBarrier
                 U _SDL_GameControllerAddMappingsFromRW
                 U _SDL_GameControllerClose
                 U _SDL_GameControllerGetAxis
                 U _SDL_GameControllerGetButton
                 U _SDL_GameControllerGetJoystick
                 U _SDL_GameControllerOpen
                 U _SDL_GameControllerUpdate
                 U _SDL_HapticClose
                 U _SDL_HapticOpenFromJoystick
                 U _SDL_HapticRumbleInit
                 U _SDL_HapticRumblePlay
                 U _SDL_HapticRumbleStop
                 U _SDL_Init
                 U _SDL_InitSubSystem
                 U _SDL_JoystickGetAttached
                 U _SDL_JoystickGetGUID
                 U _SDL_JoystickGetGUIDString
                 U _SDL_NumJoysticks
                 U _SDL_RWFromMem
                 U _SDL_WasInit
                 U _SteamAPI_Init
                 U _SteamAPI_RegisterCallResult
                 U _SteamAPI_RegisterCallback
                 U _SteamAPI_RunCallbacks
                 U _SteamAPI_Shutdown
                 U _SteamAPI_UnregisterCallResult
                 U _SteamAPI_UnregisterCallback
                 U _SteamFriends
                 U _SteamRemoteStorage
                 U _SteamUser
                 U _SteamUserStats
                 U _SteamUtils
                 U __Block_copy
                 U __DefaultRuneLocale
                 U __NSConcreteGlobalBlock
                 U __NSConcreteStackBlock
                 U __Unwind_Resume
00000001021b6250 D __ZGVN14AgBufferStreamI8AgBufferI11AgAllocatorIL16AgAllocatorTypes1EEEE6s_poolE
00000001021b6100 D __ZGVN14AgBufferStreamI8AgBufferI18AgForwardAllocatorI16AgFrameAllocatorEEE6s_poolE
00000001021b5dd0 D __ZGVZN11GridCellSet7GetPoolEvE6s_pool
00000001021b83e0 D __ZGVZN15AgDebugChannels3getE11AgStringRefE16dummyChannelData
00000001021b5e70 D __ZGVZN15GameBakerMemory12mallocObjectEvE21forceInitializeMemory
00000001021b63f0 D __ZGVZN15GameBakerMemory13mallocPGMLVarEvE21forceInitializeMemory
00000001021b63e0 D __ZGVZN15GameBakerMemory14mallocGMLValueEvE21forceInitializeMemory
00000001021b5d18 D __ZGVZN15GameBakerMemory17mallocVarPointersEvE21forceInitializeMemory
00000001021b5d28 D __ZGVZN15GameBakerMemory20mallocObjectInstanceEvE21forceInitializeMemory
00000001021b69b0 D __ZGVZN16AgRingBufferImplI9AgPointerI10AgResourceE7AgMutexS3_E3popEPS2_jE4zero
00000001021b6ee0 D __ZGVZN16AgRingBufferImplIN20AgLeaderboardManager17StoreRankingEntryEviE3popEPS1_jE4zero
00000001021b6de0 D __ZGVZN16AgRingBufferImplIN20AgLeaderboardManager17StoreRankingEntryEviE9enumerateI28SerializeStoreQueuePredicateEEjRT_iiE4zero
00000001021b6e68 D __ZGVZN16AgRingBufferImplIN20AgLeaderboardManager17StoreRankingEntryEviE9enumerateI29CompleteStoreRankingPredicateEEjRT_iiE4zero
00000001021b6948 D __ZN11AgSingletonI12AgAllocatorsE11ms_instanceE
00000001021b82f0 D __ZN11AgSingletonI12AgFileSystemE11ms_instanceE
00000001021b8108 D __ZN11AgSingletonI12AgSteamworksE11ms_instanceE
00000001021b8310 D __ZN11AgSingletonI12AgWorkerPoolE11ms_instanceE
00000001021b5e40 D __ZN11AgSingletonI12ButtonImagesE11ms_instanceE
00000001021b8340 D __ZN11AgSingletonI13AgUserManagerE11ms_instanceE
00000001021b5f98 D __ZN11AgSingletonI13GBSaveManagerE11ms_instanceE
00000001021b5da0 D __ZN11AgSingletonI14AgAudioManagerE11ms_instanceE
00000001021b7d50 D __ZN11AgSingletonI14AgInputManagerE11ms_instanceE
00000001021b8350 D __ZN11AgSingletonI15AgDialogManagerE11ms_instanceE
00000001021b8330 D __ZN11AgSingletonI15AgPlayerManagerE11ms_instanceE
00000001021b5a80 D __ZN11AgSingletonI15AgSystemManagerE11ms_instanceE
00000001021b7d60 D __ZN11AgSingletonI16AgDisplayManagerE11ms_instanceE
00000001021b8348 D __ZN11AgSingletonI16AgNetworkManagerE11ms_instanceE
00000001021b8360 D __ZN11AgSingletonI16AgProfileManagerE11ms_instanceE
00000001021b8328 D __ZN11AgSingletonI16AgSessionManagerE11ms_instanceE
00000001021b8370 D __ZN11AgSingletonI17AgResourceManagerE11ms_instanceE
00000001021b8320 D __ZN11AgSingletonI20AgLeaderboardManagerE11ms_instanceE
00000001021b5e48 D __ZN11AgSingletonI21AgAchievementsManagerE11ms_instanceE
00000001021b7fe0 D __ZN11AgSingletonI21AgLocalizationManagerE11ms_instanceE
00000001021b8358 D __ZN11AgSingletonI21AgServiceEventManagerE11ms_instanceE
00000001021b61f0 D __ZN14AgBufferStreamI8AgBufferI11AgAllocatorIL16AgAllocatorTypes1EEEE6s_poolE
00000001021b60a0 D __ZN14AgBufferStreamI8AgBufferI18AgForwardAllocatorI16AgFrameAllocatorEEE6s_poolE
0000000101d0c43e T __ZN18SilverWareRenderer10setScissorEi
0000000101d0c400 T __ZN18SilverWareRenderer5clearEjRK9AgVector4
00000001021b63f8 D __ZN3gml12GMLResourcesINS_10GMLSurfaceEE11ms_instanceE
00000001021b5ed0 D __ZN3gml12GMLResourcesINS_10GMLTextureEE11ms_instanceE
00000001021b5df0 D __ZN3gml12GMLResourcesINS_13GMLBackgroundEE11ms_instanceE
00000001021b5de8 D __ZN3gml12GMLResourcesINS_17GMLObjectInstanceEE11ms_instanceE
00000001021b5fc8 D __ZN3gml12GMLResourcesINS_7GMLFileEE11ms_instanceE
00000001021b5de0 D __ZN3gml12GMLResourcesINS_7GMLFontEE11ms_instanceE
00000001021b5fc0 D __ZN3gml12GMLResourcesINS_7GMLGridEE11ms_instanceE
00000001021b5fa0 D __ZN3gml12GMLResourcesINS_7GMLListEE11ms_instanceE
00000001021b5fe0 D __ZN3gml12GMLResourcesINS_7GMLPathEE11ms_instanceE
00000001021b5fd0 D __ZN3gml12GMLResourcesINS_7GMLRoomEE11ms_instanceE
00000001021b5e38 D __ZN3gml12GMLResourcesINS_8GMLSoundEE11ms_instanceE
00000001021b5dd8 D __ZN3gml12GMLResourcesINS_9GMLObjectEE11ms_instanceE
00000001021b5fb0 D __ZN3gml12GMLResourcesINS_9GMLSpriteEE11ms_instanceE
                 U __ZN4FMOD5Sound11getDefaultsEPfS1_S1_Pi
                 U __ZN4FMOD5Sound12getOpenStateEP14FMOD_OPENSTATEPjPbS4_
                 U __ZN4FMOD5Sound19getMusicNumChannelsEPi
                 U __ZN4FMOD5Sound7releaseEv
                 U __ZN4FMOD5Sound7setModeEj
                 U __ZN4FMOD6System10getVersionEPj
                 U __ZN4FMOD6System11createSoundEPKcjP22FMOD_CREATESOUNDEXINFOPPNS_5SoundE
                 U __ZN4FMOD6System11setCallbackEPF11FMOD_RESULTP11FMOD_SYSTEM24FMOD_SYSTEM_CALLBACKTYPEPvS5_E
                 U __ZN4FMOD6System12createStreamEPKcjP22FMOD_CREATESOUNDEXINFOPPNS_5SoundE
                 U __ZN4FMOD6System13getDriverCapsEiPjPiP16FMOD_SPEAKERMODE
                 U __ZN4FMOD6System13getDriverInfoEiPciP9FMOD_GUID
                 U __ZN4FMOD6System13getNumDriversEPi
                 U __ZN4FMOD6System13setFileSystemEPF11FMOD_RESULTPKciPjPPvS6_EPFS1_S5_S5_EPFS1_S5_S5_jS4_S5_EPFS1_S5_jS5_EPFS1_P18FMOD_ASYNCREADINFOS5_ESA_i
                 U __ZN4FMOD6System14setSpeakerModeE16FMOD_SPEAKERMODE
                 U __ZN4FMOD6System16setDSPBufferSizeEji
                 U __ZN4FMOD6System17setSoftwareFormatEi17FMOD_SOUND_FORMATii18FMOD_DSP_RESAMPLER
                 U __ZN4FMOD6System4initEijPv
                 U __ZN4FMOD6System5closeEv
                 U __ZN4FMOD6System6updateEv
                 U __ZN4FMOD6System7releaseEv
                 U __ZN4FMOD6System9playSoundE17FMOD_CHANNELINDEXPNS_5SoundEbPPNS_7ChannelE
                 U __ZN4FMOD6System9setDriverEi
                 U __ZN4FMOD6System9setOutputE15FMOD_OUTPUTTYPE
                 U __ZN4FMOD7Channel11getPositionEPjj
                 U __ZN4FMOD7Channel11setPositionEjj
                 U __ZN4FMOD7Channel12setFrequencyEf
                 U __ZN4FMOD7Channel12setLoopCountEi
                 U __ZN4FMOD7Channel4stopEv
                 U __ZN4FMOD7Channel6setPanEf
                 U __ZN4FMOD7Channel7setModeEj
                 U __ZN4FMOD7Channel9isPlayingEPb
                 U __ZN4FMOD7Channel9setPausedEb
                 U __ZN4FMOD7Channel9setVolumeEf
0000000101d2e0be T __ZNK11AgDelegate0IvE20InvokeStaticFunctionEv
0000000101d540ae T __ZNK11AgDelegate2I9AgPointerI15AgRenderContextEyvE20InvokeStaticFunctionES2_y
0000000101d5e5a8 T __ZNK3gml7PGMLVar17bool_compare_funcEv
                 U __ZNKSt3__120__vector_base_commonILb1EE20__throw_length_errorEv
                 U __ZNKSt3__120__vector_base_commonILb1EE20__throw_out_of_rangeEv
                 U __ZNKSt3__121__basic_string_commonILb1EE20__throw_length_errorEv
                 U __ZNSt3__112__next_primeEm
                 U __ZNSt3__112__rs_defaultD1Ev
                 U __ZNSt3__112__rs_defaultclEv
                 U __ZNSt3__112basic_stringIcNS_11char_traitsIcEENS_9allocatorIcEEE6__initEPKcm
                 U __ZNSt3__112basic_stringIcNS_11char_traitsIcEENS_9allocatorIcEEE6__initEPKcmm
                 U __ZNSt3__112basic_stringIcNS_11char_traitsIcEENS_9allocatorIcEEE6appendEPKc
                 U __ZNSt3__112basic_stringIcNS_11char_traitsIcEENS_9allocatorIcEEE6appendEPKcm
                 U __ZNSt3__112basic_stringIcNS_11char_traitsIcEENS_9allocatorIcEEE6insertEmPKc
                 U __ZNSt3__112basic_stringIcNS_11char_traitsIcEENS_9allocatorIcEEE6resizeEmc
                 U __ZNSt3__112basic_stringIcNS_11char_traitsIcEENS_9allocatorIcEEE7reserveEm
                 U __ZNSt3__112basic_stringIcNS_11char_traitsIcEENS_9allocatorIcEEE9__grow_byEmmmmmm
                 U __ZNSt3__112basic_stringIcNS_11char_traitsIcEENS_9allocatorIcEEE9push_backEc
                 U __ZNSt3__112basic_stringIcNS_11char_traitsIcEENS_9allocatorIcEEEC1ERKS5_
                 U __ZNSt3__112basic_stringIcNS_11char_traitsIcEENS_9allocatorIcEEEC1ERKS5_mmRKS4_
                 U __ZNSt3__112basic_stringIcNS_11char_traitsIcEENS_9allocatorIcEEED1Ev
                 U __ZNSt3__112basic_stringIcNS_11char_traitsIcEENS_9allocatorIcEEEaSERKS5_
                 U __ZNSt3__112basic_stringIwNS_11char_traitsIwEENS_9allocatorIwEEE6__initEPKwm
                 U __ZNSt3__112basic_stringIwNS_11char_traitsIwEENS_9allocatorIwEEE6appendEmw
                 U __ZNSt3__112basic_stringIwNS_11char_traitsIwEENS_9allocatorIwEEE7reserveEm
                 U __ZNSt3__112basic_stringIwNS_11char_traitsIwEENS_9allocatorIwEEE9push_backEw
                 U __ZNSt3__112basic_stringIwNS_11char_traitsIwEENS_9allocatorIwEEED1Ev
                 U __ZNSt3__112basic_stringIwNS_11char_traitsIwEENS_9allocatorIwEEEaSERKS5_
                 U __ZNSt3__113basic_istreamIcNS_11char_traitsIcEEED0Ev
                 U __ZNSt3__113basic_istreamIcNS_11char_traitsIcEEED1Ev
                 U __ZNSt3__113basic_istreamIcNS_11char_traitsIcEEErsERy
                 U __ZNSt3__113basic_ostreamIcNS_11char_traitsIcEEED0Ev
                 U __ZNSt3__113basic_ostreamIcNS_11char_traitsIcEEED1Ev
                 U __ZNSt3__113basic_ostreamIcNS_11char_traitsIcEEED2Ev
                 U __ZNSt3__113basic_ostreamIcNS_11char_traitsIcEEElsEj
                 U __ZNSt3__113basic_ostreamIcNS_11char_traitsIcEEElsEy
0000000101dea956 T __ZNSt3__114__thread_proxyINS_5tupleIJM8AgThreadFvvEPS2_EEEEEPvS7_
                 U __ZNSt3__114basic_iostreamIcNS_11char_traitsIcEEED0Ev
                 U __ZNSt3__114basic_iostreamIcNS_11char_traitsIcEEED1Ev
                 U __ZNSt3__114basic_iostreamIcNS_11char_traitsIcEEED2Ev
                 U __ZNSt3__115__thread_structC1Ev
                 U __ZNSt3__115__thread_structD1Ev
                 U __ZNSt3__115basic_streambufIcNS_11char_traitsIcEEE4syncEv
                 U __ZNSt3__115basic_streambufIcNS_11char_traitsIcEEE5imbueERKNS_6localeE
                 U __ZNSt3__115basic_streambufIcNS_11char_traitsIcEEE5uflowEv
                 U __ZNSt3__115basic_streambufIcNS_11char_traitsIcEEE6setbufEPcl
                 U __ZNSt3__115basic_streambufIcNS_11char_traitsIcEEE6xsgetnEPcl
                 U __ZNSt3__115basic_streambufIcNS_11char_traitsIcEEE6xsputnEPKcl
                 U __ZNSt3__115basic_streambufIcNS_11char_traitsIcEEE9showmanycEv
                 U __ZNSt3__115basic_streambufIcNS_11char_traitsIcEEEC2Ev
                 U __ZNSt3__115basic_streambufIcNS_11char_traitsIcEEED2Ev
                 U __ZNSt3__119__thread_local_dataEv
                 U __ZNSt3__120__throw_system_errorEiPKc
                 U __ZNSt3__16thread4joinEv
                 U __ZNSt3__16thread6detachEv
                 U __ZNSt3__16threadD1Ev
                 U __ZNSt3__18__rs_getEv
                 U __ZNSt3__18ios_base4initEPv
                 U __ZNSt3__19basic_iosIcNS_11char_traitsIcEEED2Ev
                 U __ZSt9terminatev
00000001021b70d0 D __ZTI11AgDirectory
00000001021b69e0 D __ZTI11AgReferenceI10AgResourceE
00000001021b5a70 D __ZTI11AgReferenceI11AgTexture2dE
00000001021b5d90 D __ZTI11AgReferenceI13AgAudioSourceE
00000001021b6780 D __ZTI11AgReferenceI13AgIndexBufferE
00000001021b5d60 D __ZTI11AgReferenceI14AgAudioChannelE
00000001021b6750 D __ZTI11AgReferenceI14AgVertexBufferE
00000001021b84a0 D __ZTI11AgReferenceI15AgShaderProgramE
00000001021b7120 D __ZTI11AgReferenceI7AgMountE
00000001021b8470 D __ZTI11AgReferenceI9AgArchiveE
00000001021b8048 D __ZTI11AgSingletonI12AgAllocatorsE
00000001021b65e8 D __ZTI11AgSingletonI12AgFileSystemE
00000001021b81a0 D __ZTI11AgSingletonI12AgSteamworksE
00000001021b83b0 D __ZTI11AgSingletonI12AgWorkerPoolE
00000001021b65d8 D __ZTI11AgSingletonI12ButtonImagesE
00000001021b7dd8 D __ZTI11AgSingletonI13AgUserManagerE
00000001021b5f40 D __ZTI11AgSingletonI13GBSaveManagerE
00000001021b7bd8 D __ZTI11AgSingletonI14AgAudioManagerE
00000001021b84b0 D __ZTI11AgSingletonI14AgInputManagerE
00000001021b7ee0 D __ZTI11AgSingletonI15AgDialogManagerE
00000001021b7cf0 D __ZTI11AgSingletonI15AgPlayerManagerE
00000001021b6cf8 D __ZTI11AgSingletonI15AgSystemManagerE
00000001021b7038 D __ZTI11AgSingletonI16AgDisplayManagerE
00000001021b8110 D __ZTI11AgSingletonI16AgNetworkManagerE
00000001021b7de8 D __ZTI11AgSingletonI16AgProfileManagerE
00000001021b6d48 D __ZTI11AgSingletonI16AgSessionManagerE
00000001021b6990 D __ZTI11AgSingletonI17AgResourceManagerE
00000001021b6d60 D __ZTI11AgSingletonI20AgLeaderboardManagerE
00000001021b80a0 D __ZTI11AgSingletonI21AgAchievementsManagerE
00000001021b7bc8 D __ZTI11AgSingletonI21AgLocalizationManagerE
00000001021b85e0 D __ZTI11AgSingletonI21AgServiceEventManagerE
00000001021b5940 D __ZTI11CCallResultI13SteamWorkshop32RemoteStorageDownloadUGCResult_tE
00000001021b5370 D __ZTI11CCallResultI13SteamWorkshop32RemoteStoragePublishFileResult_tE
00000001021b5310 D __ZTI11CCallResultI13SteamWorkshop40RemoteStorageUpdatePublishedFileResult_tE
00000001021b59a0 D __ZTI11CCallResultI13SteamWorkshop44RemoteStorageGetPublishedFileDetailsResult_tE
00000001021b53d0 D __ZTI11CCallResultI13SteamWorkshop48RemoteStorageEnumerateUserPublishedFilesResult_tE
00000001021b5430 D __ZTI11CCallResultI13SteamWorkshop49RemoteStorageEnumerateUserSubscribedFilesResult_tE
00000001021b8060 D __ZTI12AgAllocators
00000001021b7c20 D __ZTI12AgController
00000001021b83c0 D __ZTI12AgWorkerPool
00000001021b5cd0 D __ZTI12TiXmlVisitor
00000001021b8230 D __ZTI13AgDefaultUser
00000001021b8300 D __ZTI13AgIThreadHost
00000001021b6fb0 D __ZTI13AgLeaderboard
00000001021b52f8 D __ZTI13CCallbackBase
00000001021b6310 D __ZTI14AgBufferStreamI8AgBufferI11AgAllocatorIL16AgAllocatorTypes1EEEE
00000001021b6180 D __ZTI14AgBufferStreamI8AgBufferI18AgForwardAllocatorI16AgFrameAllocatorEEE
00000001021b85f0 D __ZTI14AgServiceEvent
00000001021b8570 D __ZTI14AudioStreamJob
00000001021b8080 D __ZTI15AgMacAllocators
00000001021b5ad0 D __ZTI15AgServiceThread
00000001021b7e50 D __ZTI16AgDefaultProfile
00000001021b82d0 D __ZTI16AgServiceCommandI11AgAllocatorIL16AgAllocatorTypes1EE9AgPointerI6AgFileEFvvES6_E
00000001021b7fc0 D __ZTI16AgServiceCommandI11AgAllocatorIL16AgAllocatorTypes1EE9AgPointerI8AgDialogEFvvES6_E
00000001021b7f70 D __ZTI16AgServiceCommandI11AgAllocatorIL16AgAllocatorTypes1EEP15AgDialogManagerFv9AgPointerI8AgDialogEES8_E
00000001021b7f20 D __ZTI16AgServiceCommandI11AgAllocatorIL16AgAllocatorTypes1EEP15AgDialogManagerFvvES5_E
00000001021b7d30 D __ZTI16AgServiceCommandI11AgAllocatorIL16AgAllocatorTypes1EEP15AgPlayerManagerFvvES5_E
00000001021b80e0 D __ZTI16AgServiceCommandI11AgAllocatorIL16AgAllocatorTypes1EEvFv25AgAchievementPlatformDataES4_E
00000001021b5c10 D __ZTI16AgServiceCommandI18AgForwardAllocatorI16AgFrameAllocatorEP11RoomManagerFvvES5_E
00000001021b5bc0 D __ZTI16AgServiceCommandI18AgForwardAllocatorI16AgFrameAllocatorEP13SpriteManagerFvvES5_E
00000001021b52b0 D __ZTI16AgServiceCommandI18AgForwardAllocatorI16AgFrameAllocatorEP17GameBakerGraphicsFijES5_E
00000001021b5b20 D __ZTI16AgServiceCommandI18AgForwardAllocatorI16AgFrameAllocatorEP17GameBakerGraphicsFvjjEFviiEE
00000001021b5260 D __ZTI16AgServiceCommandI18AgForwardAllocatorI16AgFrameAllocatorEP17GameBakerGraphicsFvjjiiiES5_E
00000001021b5b70 D __ZTI16AgServiceCommandI18AgForwardAllocatorI16AgFrameAllocatorEP17GameBakerGraphicsFvvES5_E
00000001021b5c60 D __ZTI16AgServiceCommandI18AgForwardAllocatorI16AgFrameAllocatorEP18SilverWareRendererFviES5_E
00000001021b5cb0 D __ZTI16AgServiceCommandI18AgForwardAllocatorI16AgFrameAllocatorEP18SilverWareRendererFvjRK9AgVector4EFv12AgClearFlagsS5_EE
00000001021b6020 D __ZTI16AgServiceCommandI18AgForwardAllocatorI16AgFrameAllocatorEvFvN3gml11EBlendModesES4_S4_S4_ES5_E
00000001021b5e00 D __ZTI16AgServiceCommandI18AgForwardAllocatorI16AgFrameAllocatorEvFvPN3gml13GMLBackgroundEiiiifffffRKNS3_8GMLColorES8_S8_S8_fEFvS5_iiiifffffiiiifEE
00000001021b5f20 D __ZTI16AgServiceCommandI18AgForwardAllocatorI16AgFrameAllocatorEvFviES3_E
00000001021b5f00 D __ZTI16AgServiceCommandI18AgForwardAllocatorI16AgFrameAllocatorEvFviffES3_E
00000001021b5e50 D __ZTI16AgServiceCommandI18AgForwardAllocatorI16AgFrameAllocatorEvFviffffffRKN3gml8GMLColorEfEFviffffffifEE
00000001021b5f80 D __ZTI16AgServiceCommandI18AgForwardAllocatorI16AgFrameAllocatorEvFviiiES3_E
00000001021b5eb0 D __ZTI16AgServiceCommandI18AgForwardAllocatorI16AgFrameAllocatorEvFviiiiES3_E
00000001021b63c0 D __ZTI16AgServiceCommandI18AgForwardAllocatorI16AgFrameAllocatorEvFviiiiddddfES3_E
00000001021b5ee0 D __ZTI16AgServiceCommandI18AgForwardAllocatorI16AgFrameAllocatorEvFvvES3_E
00000001021b8140 D __ZTI17AgAudioSourceFMOD
00000001021b6ce0 D __ZTI17AgResourceLoadJob
00000001021b6d30 D __ZTI18AgAudioChannelFMOD
00000001021b84f0 D __ZTI18AgAudioManagerFMOD
00000001021b62d0 D __ZTI18AgReferencedObject
00000001021b66a0 D __ZTI18AgSimpleThreadHost
00000001021b6fe0 D __ZTI20AgDefaultLeaderboard
00000001021b63b0 D __ZTI20AgServiceCommandBase
00000001021b8430 D __ZTI20AgUpdateSystemThread
00000001021b8180 D __ZTI24AgPlatformResourceShader
00000001021b7cd0 D __ZTI25AgStandardMouseController
00000001021b6f40 D __ZTI27AgDefaultLeaderboardManager
00000001021b7ff0 D __ZTI27AgPlatformResourceTexture2d
00000001021b8160 D __ZTI28AgPlatformResourceShaderBase
00000001021b7c50 D __ZTI28AgStandardKeyboardController
00000001021b6970 D __ZTI29AgPlatformResourceIndexBuffer
00000001021b67b0 D __ZTI30AgPlatformResourceVertexBuffer
00000001021b6870 D __ZTI31AgPlatformResourceShaderProgram
00000001021b7bb0 D __ZTI33AgPlatformResourceConstantsBuffer
00000001021b6950 D __ZTI33AgPlatformResourceIndexBufferBase
00000001021b6790 D __ZTI34AgPlatformResourceVertexBufferBase
00000001021b6850 D __ZTI35AgPlatformResourceShaderProgramBase
00000001021b8200 D __ZTI6AgUser
00000001021b6350 D __ZTI8AgBufferI11AgAllocatorIL16AgAllocatorTypes1EEE
00000001021b61c0 D __ZTI8AgBufferI18AgForwardAllocatorI16AgFrameAllocatorEE
00000001021b7ec0 D __ZTI8AgShader
00000001021b62e0 D __ZTI8AgStream
00000001021b7e20 D __ZTI9AgProfile
00000001021b5490 D __ZTI9CCallbackI13SteamWorkshop20PersonaStateChange_tLb0EE
00000001021b5550 D __ZTI9CCallbackI13SteamWorkshop38RemoteStoragePublishedFileSubscribed_tLb0EE
00000001021b54f0 D __ZTI9CCallbackI13SteamWorkshop40RemoteStoragePublishedFileUnsubscribed_tLb0EE
00000001021b51c8 D __ZTI9ITickable
00000001021b7dc0 D __ZTI9RenderJob
00000001021b6090 D __ZTI9TiXmlBase
00000001021b66c0 D __ZTIN12AgThreadPool10ThreadHostE
00000001021b7da8 D __ZTIN12AgThreadPool3JobE
00000001021b8550 D __ZTIN20AgPriorityThreadPool11PriorityJobE
00000001021b51d8 D __ZTIN3gml16IGMLIteratorDataE
00000001021b5210 D __ZTIN3gml20ValueGMLIteratorDataE
00000001021b51f0 D __ZTIN3gml27InstanceListGMLIteratorDataINS_9GMLObjectEEE
00000001021b6a28 D __ZTIN9AgFactoryI10AgResourceE10IAllocatorE
00000001021b6c80 D __ZTIN9AgFactoryI10AgResourceE12NewAllocatorI11AgTexture2dEE
00000001021b6a40 D __ZTIN9AgFactoryI10AgResourceE12NewAllocatorI12AgRenderListEE
00000001021b6b00 D __ZTIN9AgFactoryI10AgResourceE12NewAllocatorI13AgIndexBufferEE
00000001021b6b60 D __ZTIN9AgFactoryI10AgResourceE12NewAllocatorI14AgVertexBufferEE
00000001021b6bc0 D __ZTIN9AgFactoryI10AgResourceE12NewAllocatorI15AgShaderProgramEE
00000001021b6aa0 D __ZTIN9AgFactoryI10AgResourceE12NewAllocatorI17AgConstantsBufferEE
00000001021b6c20 D __ZTIN9AgFactoryI10AgResourceE12NewAllocatorI8AgShaderEE
                 U __ZTINSt3__113basic_istreamIcNS_11char_traitsIcEEEE
                 U __ZTINSt3__113basic_ostreamIcNS_11char_traitsIcEEEE
                 U __ZTINSt3__114basic_iostreamIcNS_11char_traitsIcEEEE
                 U __ZTINSt3__115basic_streambufIcNS_11char_traitsIcEEEE
00000001021b5810 D __ZTINSt3__115basic_stringbufIcNS_11char_traitsIcEENS_9allocatorIcEEEE
00000001021b5770 D __ZTINSt3__118basic_stringstreamIcNS_11char_traitsIcEENS_9allocatorIcEEEE
00000001021b58f0 D __ZTINSt3__119basic_ostringstreamIcNS_11char_traitsIcEENS_9allocatorIcEEEE
00000001020987e0 S __ZTS11AgDirectory
0000000102098240 S __ZTS11AgReferenceI10AgResourceE
0000000102096650 S __ZTS11AgReferenceI11AgTexture2dE
0000000102096a00 S __ZTS11AgReferenceI13AgAudioSourceE
0000000102097fd0 S __ZTS11AgReferenceI13AgIndexBufferE
00000001020969e0 S __ZTS11AgReferenceI14AgAudioChannelE
0000000102097fb0 S __ZTS11AgReferenceI14AgVertexBufferE
0000000102099860 S __ZTS11AgReferenceI15AgShaderProgramE
00000001020987f0 S __ZTS11AgReferenceI7AgMountE
00000001020997a0 S __ZTS11AgReferenceI9AgArchiveE
0000000102098fb0 S __ZTS11AgSingletonI12AgAllocatorsE
0000000102097e70 S __ZTS11AgSingletonI12AgFileSystemE
0000000102099420 S __ZTS11AgSingletonI12AgSteamworksE
00000001020996c0 S __ZTS11AgSingletonI12AgWorkerPoolE
0000000102097db0 S __ZTS11AgSingletonI12ButtonImagesE
0000000102098ad0 S __ZTS11AgSingletonI13AgUserManagerE
0000000102096d90 S __ZTS11AgSingletonI13GBSaveManagerE
0000000102098920 S __ZTS11AgSingletonI14AgAudioManagerE
00000001020998b0 S __ZTS11AgSingletonI14AgInputManagerE
0000000102098d40 S __ZTS11AgSingletonI15AgDialogManagerE
00000001020989d0 S __ZTS11AgSingletonI15AgPlayerManagerE
00000001020985f0 S __ZTS11AgSingletonI15AgSystemManagerE
0000000102098780 S __ZTS11AgSingletonI16AgDisplayManagerE
00000001020991f0 S __ZTS11AgSingletonI16AgNetworkManagerE
0000000102098bf0 S __ZTS11AgSingletonI16AgProfileManagerE
0000000102098660 S __ZTS11AgSingletonI16AgSessionManagerE
0000000102098210 S __ZTS11AgSingletonI17AgResourceManagerE
00000001020986e0 S __ZTS11AgSingletonI20AgLeaderboardManagerE
00000001020990b0 S __ZTS11AgSingletonI21AgAchievementsManagerE
0000000102098890 S __ZTS11AgSingletonI21AgLocalizationManagerE
0000000102099980 S __ZTS11AgSingletonI21AgServiceEventManagerE
0000000102096580 S __ZTS11CCallResultI13SteamWorkshop32RemoteStorageDownloadUGCResult_tE
00000001020962a0 S __ZTS11CCallResultI13SteamWorkshop32RemoteStoragePublishFileResult_tE
0000000102096240 S __ZTS11CCallResultI13SteamWorkshop40RemoteStorageUpdatePublishedFileResult_tE
00000001020965d0 S __ZTS11CCallResultI13SteamWorkshop44RemoteStorageGetPublishedFileDetailsResult_tE
00000001020962f0 S __ZTS11CCallResultI13SteamWorkshop48RemoteStorageEnumerateUserPublishedFilesResult_tE
0000000102096350 S __ZTS11CCallResultI13SteamWorkshop49RemoteStorageEnumerateUserSubscribedFilesResult_tE
0000000102098f92 S __ZTS12AgAllocators
00000001020992c0 S __ZTS12AgController
00000001020996b0 S __ZTS12AgWorkerPool
00000001020969c1 S __ZTS12TiXmlVisitor
0000000102099460 S __ZTS13AgDefaultUser
00000001020996a0 S __ZTS13AgIThreadHost
0000000102098747 S __ZTS13AgLeaderboard
0000000102096289 S __ZTS13CCallbackBase
0000000102097ba0 S __ZTS14AgBufferStreamI8AgBufferI11AgAllocatorIL16AgAllocatorTypes1EEEE
0000000102097b10 S __ZTS14AgBufferStreamI8AgBufferI18AgForwardAllocatorI16AgFrameAllocatorEEE
00000001020999b0 S __ZTS14AgServiceEvent
00000001020998f0 S __ZTS14AudioStreamJob
0000000102098f80 S __ZTS15AgMacAllocators
0000000102096670 S __ZTS15AgServiceThread
0000000102098c40 S __ZTS16AgDefaultProfile
0000000102099640 S __ZTS16AgServiceCommandI11AgAllocatorIL16AgAllocatorTypes1EE9AgPointerI6AgFileEFvvES6_E
0000000102098e40 S __ZTS16AgServiceCommandI11AgAllocatorIL16AgAllocatorTypes1EE9AgPointerI8AgDialogEFvvES6_E
0000000102098dd0 S __ZTS16AgServiceCommandI11AgAllocatorIL16AgAllocatorTypes1EEP15AgDialogManagerFv9AgPointerI8AgDialogEES8_E
0000000102098d70 S __ZTS16AgServiceCommandI11AgAllocatorIL16AgAllocatorTypes1EEP15AgDialogManagerFvvES5_E
0000000102098a00 S __ZTS16AgServiceCommandI11AgAllocatorIL16AgAllocatorTypes1EEP15AgPlayerManagerFvvES5_E
00000001020990e0 S __ZTS16AgServiceCommandI11AgAllocatorIL16AgAllocatorTypes1EEvFv25AgAchievementPlatformDataES4_E
0000000102096870 S __ZTS16AgServiceCommandI18AgForwardAllocatorI16AgFrameAllocatorEP11RoomManagerFvvES5_E
0000000102096810 S __ZTS16AgServiceCommandI18AgForwardAllocatorI16AgFrameAllocatorEP13SpriteManagerFvvES5_E
0000000102096110 S __ZTS16AgServiceCommandI18AgForwardAllocatorI16AgFrameAllocatorEP17GameBakerGraphicsFijES5_E
0000000102096750 S __ZTS16AgServiceCommandI18AgForwardAllocatorI16AgFrameAllocatorEP17GameBakerGraphicsFvjjEFviiEE
00000001020960b0 S __ZTS16AgServiceCommandI18AgForwardAllocatorI16AgFrameAllocatorEP17GameBakerGraphicsFvjjiiiES5_E
00000001020967b0 S __ZTS16AgServiceCommandI18AgForwardAllocatorI16AgFrameAllocatorEP17GameBakerGraphicsFvvES5_E
00000001020968d0 S __ZTS16AgServiceCommandI18AgForwardAllocatorI16AgFrameAllocatorEP18SilverWareRendererFviES5_E
0000000102096930 S __ZTS16AgServiceCommandI18AgForwardAllocatorI16AgFrameAllocatorEP18SilverWareRendererFvjRK9AgVector4EFv12AgClearFlagsS5_EE
0000000102096e20 S __ZTS16AgServiceCommandI18AgForwardAllocatorI16AgFrameAllocatorEvFvN3gml11EBlendModesES4_S4_S4_ES5_E
0000000102096ad0 S __ZTS16AgServiceCommandI18AgForwardAllocatorI16AgFrameAllocatorEvFvPN3gml13GMLBackgroundEiiiifffffRKNS3_8GMLColorES8_S8_S8_fEFvS5_iiiifffffiiiifEE
0000000102096d30 S __ZTS16AgServiceCommandI18AgForwardAllocatorI16AgFrameAllocatorEvFviES3_E
0000000102096ce0 S __ZTS16AgServiceCommandI18AgForwardAllocatorI16AgFrameAllocatorEvFviffES3_E
0000000102096bd0 S __ZTS16AgServiceCommandI18AgForwardAllocatorI16AgFrameAllocatorEvFviffffffRKN3gml8GMLColorEfEFviffffffifEE
0000000102096dd0 S __ZTS16AgServiceCommandI18AgForwardAllocatorI16AgFrameAllocatorEvFviiiES3_E
0000000102096c40 S __ZTS16AgServiceCommandI18AgForwardAllocatorI16AgFrameAllocatorEvFviiiiES3_E
0000000102097c70 S __ZTS16AgServiceCommandI18AgForwardAllocatorI16AgFrameAllocatorEvFviiiiddddfES3_E
0000000102096c90 S __ZTS16AgServiceCommandI18AgForwardAllocatorI16AgFrameAllocatorEvFvvES3_E
0000000102099310 S __ZTS17AgAudioSourceFMOD
0000000102098450 S __ZTS17AgResourceLoadJob
0000000102098620 S __ZTS18AgAudioChannelFMOD
00000001020998d0 S __ZTS18AgAudioManagerFMOD
0000000102097bf0 S __ZTS18AgReferencedObject
0000000102097f60 S __ZTS18AgSimpleThreadHost
0000000102098730 S __ZTS20AgDefaultLeaderboard
0000000102097cc0 S __ZTS20AgServiceCommandBase
00000001020996e0 S __ZTS20AgUpdateSystemThread
0000000102099360 S __ZTS24AgPlatformResourceShader
0000000102098980 S __ZTS25AgStandardMouseController
0000000102098710 S __ZTS27AgDefaultLeaderboardManager
0000000102098f60 S __ZTS27AgPlatformResourceTexture2d
0000000102099380 S __ZTS28AgPlatformResourceShaderBase
0000000102098960 S __ZTS28AgStandardKeyboardController
0000000102098190 S __ZTS29AgPlatformResourceIndexBuffer
0000000102098010 S __ZTS30AgPlatformResourceVertexBuffer
00000001020980a0 S __ZTS31AgPlatformResourceShaderProgram
0000000102098830 S __ZTS33AgPlatformResourceConstantsBuffer
00000001020981b0 S __ZTS33AgPlatformResourceIndexBufferBase
0000000102098040 S __ZTS34AgPlatformResourceVertexBufferBase
0000000102098070 S __ZTS35AgPlatformResourceShaderProgramBase
0000000102099470 S __ZTS6AgUser
0000000102097c10 S __ZTS8AgBufferI11AgAllocatorIL16AgAllocatorTypes1EEE
0000000102097b60 S __ZTS8AgBufferI18AgForwardAllocatorI16AgFrameAllocatorEE
0000000102098c80 S __ZTS8AgShader
0000000102099630 S __ZTS8AgStream
0000000102098c53 S __ZTS9AgProfile
00000001020963b0 S __ZTS9CCallbackI13SteamWorkshop20PersonaStateChange_tLb0EE
0000000102096440 S __ZTS9CCallbackI13SteamWorkshop38RemoteStoragePublishedFileSubscribed_tLb0EE
00000001020963f0 S __ZTS9CCallbackI13SteamWorkshop40RemoteStoragePublishedFileUnsubscribed_tLb0EE
0000000102095f99 S __ZTS9ITickable
0000000102098a90 S __ZTS9RenderJob
00000001020972f1 S __ZTS9TiXmlBase
0000000102097f40 S __ZTSN12AgThreadPool10ThreadHostE
0000000102098aa0 S __ZTSN12AgThreadPool3JobE
0000000102099910 S __ZTSN20AgPriorityThreadPool11PriorityJobE
0000000102095ff0 S __ZTSN3gml16IGMLIteratorDataE
0000000102096010 S __ZTSN3gml20ValueGMLIteratorDataE
0000000102095fb0 S __ZTSN3gml27InstanceListGMLIteratorDataINS_9GMLObjectEEE
00000001020982a0 S __ZTSN9AgFactoryI10AgResourceE10IAllocatorE
0000000102098410 S __ZTSN9AgFactoryI10AgResourceE12NewAllocatorI11AgTexture2dEE
0000000102098260 S __ZTSN9AgFactoryI10AgResourceE12NewAllocatorI12AgRenderListEE
0000000102098310 S __ZTSN9AgFactoryI10AgResourceE12NewAllocatorI13AgIndexBufferEE
0000000102098350 S __ZTSN9AgFactoryI10AgResourceE12NewAllocatorI14AgVertexBufferEE
0000000102098390 S __ZTSN9AgFactoryI10AgResourceE12NewAllocatorI15AgShaderProgramEE
00000001020982d0 S __ZTSN9AgFactoryI10AgResourceE12NewAllocatorI17AgConstantsBufferEE
00000001020983d0 S __ZTSN9AgFactoryI10AgResourceE12NewAllocatorI8AgShaderEE
00000001020964e0 S __ZTSNSt3__115basic_stringbufIcNS_11char_traitsIcEENS_9allocatorIcEEEE
0000000102096490 S __ZTSNSt3__118basic_stringstreamIcNS_11char_traitsIcEENS_9allocatorIcEEEE
0000000102096530 S __ZTSNSt3__119basic_ostringstreamIcNS_11char_traitsIcEENS_9allocatorIcEEEE
                 U __ZTVN10__cxxabiv117__class_type_infoE
                 U __ZTVN10__cxxabiv120__si_class_type_infoE
                 U __ZTVN10__cxxabiv121__vmi_class_type_infoE
                 U __ZThn16_NSt3__114basic_iostreamIcNS_11char_traitsIcEEED0Ev
                 U __ZThn16_NSt3__114basic_iostreamIcNS_11char_traitsIcEEED1Ev
                 U __ZTv0_n24_NSt3__113basic_istreamIcNS_11char_traitsIcEEED0Ev
                 U __ZTv0_n24_NSt3__113basic_istreamIcNS_11char_traitsIcEEED1Ev
                 U __ZTv0_n24_NSt3__113basic_ostreamIcNS_11char_traitsIcEEED0Ev
                 U __ZTv0_n24_NSt3__113basic_ostreamIcNS_11char_traitsIcEEED1Ev
                 U __ZTv0_n24_NSt3__114basic_iostreamIcNS_11char_traitsIcEEED0Ev
                 U __ZTv0_n24_NSt3__114basic_iostreamIcNS_11char_traitsIcEEED1Ev
00000001021b5da8 D __ZZN11GridCellSet7GetPoolEvE6s_pool
00000001021b6890 D __ZZN15AgDebugChannels3getE11AgStringRefE16dummyChannelData
00000001021b5e68 D __ZZN15GameBakerMemory12mallocObjectEvE21forceInitializeMemory
00000001021b5d00 D __ZZN15GameBakerMemory13mallocPGMLVarEvE21forceInitializeMemory
00000001021b5cf0 D __ZZN15GameBakerMemory14mallocGMLValueEvE21forceInitializeMemory
00000001021b5d10 D __ZZN15GameBakerMemory17mallocVarPointersEvE21forceInitializeMemory
00000001021b5d20 D __ZZN15GameBakerMemory20mallocObjectInstanceEvE21forceInitializeMemory
00000001021b8100 D __ZZN16AgRingBufferImplI25AgAchievementPlatformData7AgMutexS1_E3popEPS0_jE4zero
00000001021b69a0 D __ZZN16AgRingBufferImplI9AgPointerI10AgResourceE7AgMutexS3_E3popEPS2_jE4zero
00000001021b6e70 D __ZZN16AgRingBufferImplIN20AgLeaderboardManager17StoreRankingEntryEviE3popEPS1_jE4zero
00000001021b6d70 D __ZZN16AgRingBufferImplIN20AgLeaderboardManager17StoreRankingEntryEviE9enumerateI28SerializeStoreQueuePredicateEEjRT_iiE4zero
00000001021b6df8 D __ZZN16AgRingBufferImplIN20AgLeaderboardManager17StoreRankingEntryEviE9enumerateI29CompleteStoreRankingPredicateEEjRT_iiE4zero
00000001021b6620 D __ZZN16AgRingBufferImplIPN12AgThreadPool3JobE7AgMutexS3_E3popEPS2_jE4zero
00000001021b6610 D __ZZN16AgRingBufferImplIPN12AgThreadPool3JobE7AgMutexS3_E3popI20GetPriorityPredicateEEiRT_RS2_E4zero
00000001021b8508 D __ZZN16AgRingBufferImplIPN12AgThreadPool3JobE7AgMutexS3_E9enumerateI13FileIDMatchesEEjRT_iiE4zero
00000001021b6618 D __ZZN16AgRingBufferImplIPN12AgThreadPool3JobE7AgMutexS3_E9enumerateI18CancelJobPredicateEEjRT_iiE4zero
00000001021b6640 D __ZZN16AgRingBufferImplIPN12AgThreadPool3JobE7AgMutexS3_E9enumerateI20FindJobByIdPredicateEEjRT_iiE4zero
00000001021b6628 D __ZZN16AgRingBufferImplIPN12AgThreadPool3JobE7AgMutexS3_E9enumerateI21GetRemoveJobPredicateEEjRT_iiE4zero
00000001021b6638 D __ZZN16AgRingBufferImplIPN12AgThreadPool3JobE7AgMutexS3_E9enumerateI25FindJobByGroupIdPredicateEEjRT_iiE4zero
00000001021b6630 D __ZZN16AgRingBufferImplIPN12AgThreadPool3JobE7AgMutexS3_E9enumerateINS0_20CompleteJobPredicateEEEjRT_iiE4zero
00000001021b8198 D __ZZN31AgPlatformResourceTexture2dBase9getLoaderEvE6loader
00000001021b6038 D __ZZN3gml6randomERKNS_7PGMLVarEE15oneOverRAND_MAX
00000001021b51b8 D __ZZNK3gml8GridNode8estimateEiiE2xd
00000001021b51bc D __ZZNK3gml8GridNode8estimateEiiE2yd
                 U __ZdaPv
                 U __ZdlPv
                 U __Znam
                 U __Znwm
                 U ___CFConstantStringClassReference
                 U ___assert_rtn
                 U ___bzero
                 U ___cxa_atexit
                 U ___cxa_begin_catch
                 U ___cxa_end_catch
                 U ___cxa_guard_abort
                 U ___cxa_guard_acquire
                 U ___cxa_guard_release
                 U ___cxa_pure_virtual
                 U ___cxa_rethrow
                 U ___exp10f
                 U ___gxx_personality_v0
                 U ___maskrune
                 U ___sincosf_stret
                 U ___stack_chk_fail
                 U ___stack_chk_guard
                 U ___tolower
                 U __dispatch_main_q
                 U __dyld_register_func_for_add_image
0000000100000000 T __mh_execute_header
                 U __objc_empty_cache
                 U __objc_empty_vtable
                 U _acosf
                 U _asprintf
                 U _atan2
                 U _atan2f
                 U _atof
                 U _atoi
                 U _bzero
                 U _calloc
                 U _ceilf
                 U _class_addMethod
                 U _class_addProperty
                 U _class_addProtocol
                 U _class_getInstanceMethod
                 U _class_getInstanceSize
                 U _class_getInstanceVariable
                 U _class_getIvarLayout
                 U _class_getSuperclass
                 U _class_isMetaClass
                 U _class_respondsToSelector
                 U _clock
                 U _closedir
                 U _dispatch_async
                 U _dispatch_release
                 U _dispatch_semaphore_create
                 U _dispatch_semaphore_signal
                 U _dispatch_semaphore_wait
                 U _dispatch_sync
                 U _dispatch_time
                 U _dlclose
                 U _dlopen
                 U _dlsym
                 U _exit
                 U _fclose
                 U _ferror
                 U _fflush
                 U _floor
                 U _floorf
                 U _fmod
                 U _fmodf
                 U _fopen
                 U _fprintf
                 U _fputc
                 U _fputs
                 U _fread
                 U _free
                 U _fseek
                 U _ftell
                 U _fwrite
                 U _glActiveTexture
                 U _glAttachShader
                 U _glBindAttribLocation
                 U _glBindBuffer
                 U _glBindFramebufferEXT
                 U _glBindRenderbufferEXT
                 U _glBindTexture
                 U _glBindVertexArray
                 U _glBlendEquation
                 U _glBlendFuncSeparate
                 U _glBufferData
                 U _glBufferSubData
                 U _glClear
                 U _glClearColor
                 U _glClearDepth
                 U _glClearStencil
                 U _glCompileShader
                 U _glCreateProgram
                 U _glCreateShader
                 U _glDeleteBuffers
                 U _glDeleteFramebuffersEXT
                 U _glDeleteProgram
                 U _glDeleteShader
                 U _glDeleteTextures
                 U _glDeleteVertexArrays
                 U _glDepthFunc
                 U _glDepthMask
                 U _glDisable
                 U _glDisableVertexAttribArray
                 U _glDrawArrays
                 U _glDrawElements
                 U _glEnable
                 U _glEnableVertexAttribArray
                 U _glFramebufferRenderbufferEXT
                 U _glFramebufferTexture2DEXT
                 U _glFrontFace
                 U _glGenBuffers
                 U _glGenFramebuffersEXT
                 U _glGenRenderbuffersEXT
                 U _glGenTextures
                 U _glGenVertexArrays
                 U _glGetActiveUniform
                 U _glGetProgramInfoLog
                 U _glGetProgramiv
                 U _glGetShaderInfoLog
                 U _glGetShaderiv
                 U _glGetUniformLocation
                 U _glLinkProgram
                 U _glRenderbufferStorageEXT
                 U _glScissor
                 U _glShaderSource
                 U _glStencilFunc
                 U _glStencilOp
                 U _glTexImage2D
                 U _glTexParameteri
                 U _glTexSubImage2D
                 U _glUniform1fv
                 U _glUniform1i
                 U _glUniform2fv
                 U _glUniform3fv
                 U _glUniform4fv
                 U _glUniformMatrix2fv
                 U _glUniformMatrix3fv
                 U _glUniformMatrix4fv
                 U _glUseProgram
                 U _glValidateProgram
                 U _glVertexAttribPointer
                 U _glViewport
                 U _hash_create
                 U _hash_search
                 U _ivar_getName
                 U _ivar_getOffset
                 U _mach_absolute_time
                 U _mach_timebase_info
                 U _malloc
                 U _memchr
                 U _memcmp
                 U _memcpy
                 U _memmove
                 U _memset
                 U _method_setImplementation
                 U _mkdir
                 U _objc_autoreleasePoolPop
                 U _objc_autoreleasePoolPush
                 U _objc_collectingEnabled
                 U _objc_constructInstance
                 U _objc_getClass
                 U _objc_getMetaClass
                 U _objc_getProtocol
                 U _objc_getRequiredClass
                 U _objc_initializeClassPair
                 U _objc_lookUpClass
                 U _objc_msgSend
                 U _objc_msgSendSuper2
                 U _objc_msgSend_stret
                 U _objc_registerClassPair
                 U _objc_retain
                 U _object_getClass
                 U _object_getIvar
                 U _object_setIvar
                 U _opendir$INODE64
                 U _property_copyAttributeList
                 U _protocol_getMethodDescription
                 U _pthread_cond_broadcast
                 U _pthread_cond_destroy
                 U _pthread_cond_init
                 U _pthread_cond_timedwait
                 U _pthread_cond_wait
                 U _pthread_create
                 U _pthread_getschedparam
                 U _pthread_getspecific
                 U _pthread_mutex_destroy
                 U _pthread_mutex_init
                 U _pthread_mutex_lock
                 U _pthread_mutex_unlock
                 U _pthread_mutexattr_destroy
                 U _pthread_mutexattr_init
                 U _pthread_mutexattr_setprotocol
                 U _pthread_mutexattr_settype
                 U _pthread_self
                 U _pthread_setschedparam
                 U _pthread_setspecific
                 U _rand
                 U _readdir$INODE64
                 U _realloc
                 U _rmdir
                 U _sel_getUid
                 U _sin
                 U _sinf
                 U _snprintf
                 U _sprintf
                 U _srand
                 U _sscanf
                 U _stat$INODE64
                 U _strchr
                 U _strcmp
                 U _strcpy
                 U _strlen
                 U _strncmp
                 U _strncpy
                 U _strrchr
                 U _strstr
                 U _strtoull
                 U _time
                 U _usleep
                 U _wcslen
                 U _wcstombs
                 U dyld_stub_binder
[MacOS] 
